
startfiles:     file format elf32-littleriscv


Disassembly of section .text.init:

00000000 <_start>:
   0:	0080006f          	j	8 <reset_vector>

00000004 <fail_loop>:
   4:	0000006f          	j	4 <fail_loop>

00000008 <reset_vector>:
   8:	00000193          	li	gp,0

0000000c <begin_testcode>:
   c:	00000293          	li	t0,0
  10:	fe501ae3          	bne	zero,t0,4 <fail_loop>
  14:	00001797          	auipc	a5,0x1
  18:	ffc78793          	addi	a5,a5,-4 # 1010 <test_A1_res>
  1c:	fff00413          	li	s0,-1
  20:	34041073          	csrw	mscratch,s0
  24:	3400f0f3          	csrrci	ra,mscratch,1
  28:	340410f3          	csrrw	ra,mscratch,s0
  2c:	34007173          	csrrci	sp,mscratch,0
  30:	34041173          	csrrw	sp,mscratch,s0
  34:	340ff1f3          	csrrci	gp,mscratch,31
  38:	340411f3          	csrrw	gp,mscratch,s0
  3c:	34087273          	csrrci	tp,mscratch,16
  40:	34041273          	csrrw	tp,mscratch,s0
  44:	3407f2f3          	csrrci	t0,mscratch,15
  48:	340412f3          	csrrw	t0,mscratch,s0
  4c:	0007a023          	sw	zero,0(a5)
  50:	0017a223          	sw	ra,4(a5)
  54:	0027a423          	sw	sp,8(a5)
  58:	0037a623          	sw	gp,12(a5)
  5c:	0047a823          	sw	tp,16(a5)
  60:	0057aa23          	sw	t0,20(a5)
  64:	0087ac23          	sw	s0,24(a5)
  68:	00000293          	li	t0,0
  6c:	f8501ce3          	bne	zero,t0,4 <fail_loop>
  70:	fff00293          	li	t0,-1
  74:	f85118e3          	bne	sp,t0,4 <fail_loop>
  78:	fe000293          	li	t0,-32
  7c:	f85194e3          	bne	gp,t0,4 <fail_loop>
  80:	fef00293          	li	t0,-17
  84:	f85210e3          	bne	tp,t0,4 <fail_loop>
  88:	00000293          	li	t0,0
  8c:	f6529ce3          	bne	t0,t0,4 <fail_loop>
  90:	fff00293          	li	t0,-1
  94:	f65418e3          	bne	s0,t0,4 <fail_loop>
  98:	00001297          	auipc	t0,0x1
  9c:	f9428293          	addi	t0,t0,-108 # 102c <test_A2_res>
  a0:	fff00413          	li	s0,-1
  a4:	34041073          	csrw	mscratch,s0
  a8:	3400f5f3          	csrrci	a1,mscratch,1
  ac:	34007673          	csrrci	a2,mscratch,0
  b0:	340ff6f3          	csrrci	a3,mscratch,31
  b4:	34087773          	csrrci	a4,mscratch,16
  b8:	3407f7f3          	csrrci	a5,mscratch,15
  bc:	34007873          	csrrci	a6,mscratch,0
  c0:	00b2a023          	sw	a1,0(t0)
  c4:	00c2a223          	sw	a2,4(t0)
  c8:	00d2a423          	sw	a3,8(t0)
  cc:	00e2a623          	sw	a4,12(t0)
  d0:	00f2a823          	sw	a5,16(t0)
  d4:	0102aa23          	sw	a6,20(t0)
  d8:	0082ac23          	sw	s0,24(t0)
  dc:	fff00293          	li	t0,-1
  e0:	f25592e3          	bne	a1,t0,4 <fail_loop>
  e4:	ffe00293          	li	t0,-2
  e8:	f0561ee3          	bne	a2,t0,4 <fail_loop>
  ec:	ffe00293          	li	t0,-2
  f0:	f0569ae3          	bne	a3,t0,4 <fail_loop>
  f4:	fe000293          	li	t0,-32
  f8:	f05716e3          	bne	a4,t0,4 <fail_loop>
  fc:	fe000293          	li	t0,-32
 100:	f05792e3          	bne	a5,t0,4 <fail_loop>
 104:	fe000293          	li	t0,-32
 108:	ee581ee3          	bne	a6,t0,4 <fail_loop>
 10c:	fff00293          	li	t0,-1
 110:	ee541ae3          	bne	s0,t0,4 <fail_loop>
 114:	00001097          	auipc	ra,0x1
 118:	f3408093          	addi	ra,ra,-204 # 1048 <test_B_res>
 11c:	32165a37          	lui	s4,0x32165
 120:	498a0a13          	addi	s4,s4,1176 # 32165498 <_end+0x32164438>
 124:	340a1073          	csrw	mscratch,s4
 128:	3407f073          	csrci	mscratch,15
 12c:	340a1a73          	csrrw	s4,mscratch,s4
 130:	0000a023          	sw	zero,0(ra)
 134:	0140a223          	sw	s4,4(ra)
 138:	00000293          	li	t0,0
 13c:	ec5014e3          	bne	zero,t0,4 <fail_loop>
 140:	321652b7          	lui	t0,0x32165
 144:	49028293          	addi	t0,t0,1168 # 32165490 <_end+0x32164430>
 148:	ea5a1ee3          	bne	s4,t0,4 <fail_loop>
 14c:	6b40006f          	j	800 <ok_loop>

00000150 <end_testcode>:
 150:	c0001073          	unimp
	...

Disassembly of section .tohost:

00000800 <ok_loop>:
 800:	0000006f          	j	800 <ok_loop>

Disassembly of section .data:

00001000 <begin_signature>:
    1000:	bbbbbbbb          	0xbbbbbbbb
    1004:	bbbbbbbb          	0xbbbbbbbb
    1008:	bbbbbbbb          	0xbbbbbbbb
    100c:	bbbbbbbb          	0xbbbbbbbb

00001010 <test_A1_res>:
    1010:	ffff                	0xffff
    1012:	ffff                	0xffff
    1014:	ffff                	0xffff
    1016:	ffff                	0xffff
    1018:	ffff                	0xffff
    101a:	ffff                	0xffff
    101c:	ffff                	0xffff
    101e:	ffff                	0xffff
    1020:	ffff                	0xffff
    1022:	ffff                	0xffff
    1024:	ffff                	0xffff
    1026:	ffff                	0xffff
    1028:	ffff                	0xffff
    102a:	ffff                	0xffff

0000102c <test_A2_res>:
    102c:	ffff                	0xffff
    102e:	ffff                	0xffff
    1030:	ffff                	0xffff
    1032:	ffff                	0xffff
    1034:	ffff                	0xffff
    1036:	ffff                	0xffff
    1038:	ffff                	0xffff
    103a:	ffff                	0xffff
    103c:	ffff                	0xffff
    103e:	ffff                	0xffff
    1040:	ffff                	0xffff
    1042:	ffff                	0xffff
    1044:	ffff                	0xffff
    1046:	ffff                	0xffff

00001048 <test_B_res>:
    1048:	ffff                	0xffff
    104a:	ffff                	0xffff
    104c:	ffff                	0xffff
    104e:	ffff                	0xffff

00001050 <end_signature>:
    1050:	eeee                	fsw	fs11,92(sp)
    1052:	eeee                	fsw	fs11,92(sp)
    1054:	eeee                	fsw	fs11,92(sp)
    1056:	eeee                	fsw	fs11,92(sp)
    1058:	eeee                	fsw	fs11,92(sp)
    105a:	eeee                	fsw	fs11,92(sp)
    105c:	eeee                	fsw	fs11,92(sp)
    105e:	eeee                	fsw	fs11,92(sp)
