
startfiles:     file format elf32-littleriscv


Disassembly of section .text.init:

00000000 <_start>:
   0:	0080006f          	j	8 <reset_vector>

00000004 <fail_loop>:
   4:	0000006f          	j	4 <fail_loop>

00000008 <reset_vector>:
   8:	00000193          	li	gp,0

0000000c <begin_testcode>:
   c:	00000293          	li	t0,0
  10:	fe501ae3          	bne	zero,t0,4 <fail_loop>
  14:	00001797          	auipc	a5,0x1
  18:	ffc78793          	addi	a5,a5,-4 # 1010 <test_A_res>
  1c:	00100093          	li	ra,1
  20:	00000193          	li	gp,0
  24:	fff00293          	li	t0,-1
  28:	80000db7          	lui	s11,0x80000
  2c:	fffd8d93          	addi	s11,s11,-1 # 7fffffff <_end+0x7fffef9f>
  30:	80000eb7          	lui	t4,0x80000
  34:	34001073          	csrw	mscratch,zero
  38:	34009173          	csrrw	sp,mscratch,ra
  3c:	34019273          	csrrw	tp,mscratch,gp
  40:	34029373          	csrrw	t1,mscratch,t0
  44:	340d9e73          	csrrw	t3,mscratch,s11
  48:	340e9f73          	csrrw	t5,mscratch,t4
  4c:	34001ff3          	csrrw	t6,mscratch,zero
  50:	0027a023          	sw	sp,0(a5)
  54:	0047a223          	sw	tp,4(a5)
  58:	0067a423          	sw	t1,8(a5)
  5c:	01c7a623          	sw	t3,12(a5)
  60:	01e7a823          	sw	t5,16(a5)
  64:	01f7aa23          	sw	t6,20(a5)
  68:	00000293          	li	t0,0
  6c:	f8511ce3          	bne	sp,t0,4 <fail_loop>
  70:	00100293          	li	t0,1
  74:	f85218e3          	bne	tp,t0,4 <fail_loop>
  78:	00000293          	li	t0,0
  7c:	f85314e3          	bne	t1,t0,4 <fail_loop>
  80:	fff00293          	li	t0,-1
  84:	f85e10e3          	bne	t3,t0,4 <fail_loop>
  88:	800002b7          	lui	t0,0x80000
  8c:	fff28293          	addi	t0,t0,-1 # 7fffffff <_end+0x7fffef9f>
  90:	f65f1ae3          	bne	t5,t0,4 <fail_loop>
  94:	800002b7          	lui	t0,0x80000
  98:	f65f96e3          	bne	t6,t0,4 <fail_loop>
  9c:	00001d17          	auipc	s10,0x1
  a0:	f8cd0d13          	addi	s10,s10,-116 # 1028 <test_B_res>
  a4:	123450b7          	lui	ra,0x12345
  a8:	67808093          	addi	ra,ra,1656 # 12345678 <_end+0x12344618>
  ac:	9abce137          	lui	sp,0x9abce
  b0:	ef010113          	addi	sp,sp,-272 # 9abcdef0 <_end+0x9abcce90>
  b4:	34009073          	csrw	mscratch,ra
  b8:	340111f3          	csrrw	gp,mscratch,sp
  bc:	34019273          	csrrw	tp,mscratch,gp
  c0:	340212f3          	csrrw	t0,mscratch,tp
  c4:	34001373          	csrrw	t1,mscratch,zero
  c8:	003d2023          	sw	gp,0(s10)
  cc:	004d2223          	sw	tp,4(s10)
  d0:	005d2423          	sw	t0,8(s10)
  d4:	006d2623          	sw	t1,12(s10)
  d8:	123452b7          	lui	t0,0x12345
  dc:	67828293          	addi	t0,t0,1656 # 12345678 <_end+0x12344618>
  e0:	f25192e3          	bne	gp,t0,4 <fail_loop>
  e4:	9abce2b7          	lui	t0,0x9abce
  e8:	ef028293          	addi	t0,t0,-272 # 9abcdef0 <_end+0x9abcce90>
  ec:	f0521ce3          	bne	tp,t0,4 <fail_loop>
  f0:	00000293          	li	t0,0
  f4:	f05298e3          	bne	t0,t0,4 <fail_loop>
  f8:	9abce2b7          	lui	t0,0x9abce
  fc:	ef028293          	addi	t0,t0,-272 # 9abcdef0 <_end+0x9abcce90>
 100:	f05312e3          	bne	t1,t0,4 <fail_loop>
 104:	00001097          	auipc	ra,0x1
 108:	f3408093          	addi	ra,ra,-204 # 1038 <test_C_res>
 10c:	42727137          	lui	sp,0x42727
 110:	e6f10113          	addi	sp,sp,-401 # 42726e6f <_end+0x42725e0f>
 114:	34011073          	csrw	mscratch,sp
 118:	34001073          	csrw	mscratch,zero
 11c:	0000a023          	sw	zero,0(ra)
 120:	00000293          	li	t0,0
 124:	ee5010e3          	bne	zero,t0,4 <fail_loop>
 128:	00001117          	auipc	sp,0x1
 12c:	f1410113          	addi	sp,sp,-236 # 103c <test_D_res>
 130:	f7ff9db7          	lui	s11,0xf7ff9
 134:	818d8d93          	addi	s11,s11,-2024 # f7ff8818 <_end+0xf7ff77b8>
 138:	340d9073          	csrw	mscratch,s11
 13c:	34001073          	csrw	mscratch,zero
 140:	34001073          	csrw	mscratch,zero
 144:	340012f3          	csrrw	t0,mscratch,zero
 148:	00012023          	sw	zero,0(sp)
 14c:	00512223          	sw	t0,4(sp)
 150:	00000293          	li	t0,0
 154:	ea5018e3          	bne	zero,t0,4 <fail_loop>
 158:	00000293          	li	t0,0
 15c:	ea5294e3          	bne	t0,t0,4 <fail_loop>
 160:	00001117          	auipc	sp,0x1
 164:	ee410113          	addi	sp,sp,-284 # 1044 <test_E_res>
 168:	321653b7          	lui	t2,0x32165
 16c:	49838393          	addi	t2,t2,1176 # 32165498 <_end+0x32164438>
 170:	14726337          	lui	t1,0x14726
 174:	83630313          	addi	t1,t1,-1994 # 14725836 <_end+0x147247d6>
 178:	963852b7          	lui	t0,0x96385
 17c:	27428293          	addi	t0,t0,628 # 96385274 <_end+0x96384214>
 180:	34031073          	csrw	mscratch,t1
 184:	340292f3          	csrrw	t0,mscratch,t0
 188:	340393f3          	csrrw	t2,mscratch,t2
 18c:	34001473          	csrrw	s0,mscratch,zero
 190:	00512023          	sw	t0,0(sp)
 194:	00712223          	sw	t2,4(sp)
 198:	00812423          	sw	s0,8(sp)
 19c:	00000293          	li	t0,0
 1a0:	e65292e3          	bne	t0,t0,4 <fail_loop>
 1a4:	963852b7          	lui	t0,0x96385
 1a8:	27428293          	addi	t0,t0,628 # 96385274 <_end+0x96384214>
 1ac:	e4539ce3          	bne	t2,t0,4 <fail_loop>
 1b0:	321652b7          	lui	t0,0x32165
 1b4:	49828293          	addi	t0,t0,1176 # 32165498 <_end+0x32164438>
 1b8:	e45416e3          	bne	s0,t0,4 <fail_loop>
 1bc:	6440006f          	j	800 <ok_loop>

000001c0 <end_testcode>:
 1c0:	c0001073          	unimp

Disassembly of section .tohost:

00000800 <ok_loop>:
 800:	0000006f          	j	800 <ok_loop>

Disassembly of section .data:

00001000 <begin_signature>:
    1000:	bbbbbbbb          	0xbbbbbbbb
    1004:	bbbbbbbb          	0xbbbbbbbb
    1008:	bbbbbbbb          	0xbbbbbbbb
    100c:	bbbbbbbb          	0xbbbbbbbb

00001010 <test_A_res>:
    1010:	ffff                	0xffff
    1012:	ffff                	0xffff
    1014:	ffff                	0xffff
    1016:	ffff                	0xffff
    1018:	ffff                	0xffff
    101a:	ffff                	0xffff
    101c:	ffff                	0xffff
    101e:	ffff                	0xffff
    1020:	ffff                	0xffff
    1022:	ffff                	0xffff
    1024:	ffff                	0xffff
    1026:	ffff                	0xffff

00001028 <test_B_res>:
    1028:	ffff                	0xffff
    102a:	ffff                	0xffff
    102c:	ffff                	0xffff
    102e:	ffff                	0xffff
    1030:	ffff                	0xffff
    1032:	ffff                	0xffff
    1034:	ffff                	0xffff
    1036:	ffff                	0xffff

00001038 <test_C_res>:
    1038:	ffff                	0xffff
    103a:	ffff                	0xffff

0000103c <test_D_res>:
    103c:	ffff                	0xffff
    103e:	ffff                	0xffff
    1040:	ffff                	0xffff
    1042:	ffff                	0xffff

00001044 <test_E_res>:
    1044:	ffff                	0xffff
    1046:	ffff                	0xffff
    1048:	ffff                	0xffff
    104a:	ffff                	0xffff
    104c:	ffff                	0xffff
    104e:	ffff                	0xffff

00001050 <end_signature>:
    1050:	eeee                	fsw	fs11,92(sp)
    1052:	eeee                	fsw	fs11,92(sp)
    1054:	eeee                	fsw	fs11,92(sp)
    1056:	eeee                	fsw	fs11,92(sp)
    1058:	eeee                	fsw	fs11,92(sp)
    105a:	eeee                	fsw	fs11,92(sp)
    105c:	eeee                	fsw	fs11,92(sp)
    105e:	eeee                	fsw	fs11,92(sp)
