
startfiles:     file format elf32-littleriscv


Disassembly of section .text.init:

00000000 <_start>:
   0:	0080006f          	j	8 <reset_vector>

00000004 <fail_loop>:
   4:	0000006f          	j	4 <fail_loop>

00000008 <reset_vector>:
   8:	00000193          	li	gp,0

0000000c <begin_testcode>:
   c:	00000293          	li	t0,0
  10:	fe501ae3          	bne	zero,t0,4 <fail_loop>
  14:	00001097          	auipc	ra,0x1
  18:	ffc08093          	addi	ra,ra,-4 # 1010 <test_A1_res>
  1c:	11111137          	lui	sp,0x11111
  20:	11110113          	addi	sp,sp,273 # 11111111 <_end+0x111100d1>
  24:	0080006f          	j	2c <begin_testcode+0x20>
  28:	00000113          	li	sp,0
  2c:	0020a023          	sw	sp,0(ra)
  30:	111112b7          	lui	t0,0x11111
  34:	11128293          	addi	t0,t0,273 # 11111111 <_end+0x111100d1>
  38:	fc5116e3          	bne	sp,t0,4 <fail_loop>
  3c:	00001097          	auipc	ra,0x1
  40:	fd808093          	addi	ra,ra,-40 # 1014 <test_A2_res>
  44:	22222137          	lui	sp,0x22222
  48:	22210113          	addi	sp,sp,546 # 22222222 <_end+0x222211e2>
  4c:	00000217          	auipc	tp,0x0
  50:	01020213          	addi	tp,tp,16 # 5c <begin_testcode+0x50>
  54:	00020067          	jr	tp
  58:	00000113          	li	sp,0
  5c:	0020a023          	sw	sp,0(ra)
  60:	222222b7          	lui	t0,0x22222
  64:	22228293          	addi	t0,t0,546 # 22222222 <_end+0x222211e2>
  68:	f8511ee3          	bne	sp,t0,4 <fail_loop>
  6c:	00001097          	auipc	ra,0x1
  70:	fac08093          	addi	ra,ra,-84 # 1018 <test_B1_res>
  74:	00500293          	li	t0,5
  78:	00600313          	li	t1,6
  7c:	33333137          	lui	sp,0x33333
  80:	33310113          	addi	sp,sp,819 # 33333333 <_end+0x333322f3>
  84:	00528463          	beq	t0,t0,8c <begin_testcode+0x80>
  88:	00000113          	li	sp,0
  8c:	0020a023          	sw	sp,0(ra)
  90:	333332b7          	lui	t0,0x33333
  94:	33328293          	addi	t0,t0,819 # 33333333 <_end+0x333322f3>
  98:	f65116e3          	bne	sp,t0,4 <fail_loop>
  9c:	00001097          	auipc	ra,0x1
  a0:	f8008093          	addi	ra,ra,-128 # 101c <test_B2_res>
  a4:	00500293          	li	t0,5
  a8:	00600313          	li	t1,6
  ac:	44444137          	lui	sp,0x44444
  b0:	44410113          	addi	sp,sp,1092 # 44444444 <_end+0x44443404>
  b4:	00629463          	bne	t0,t1,bc <begin_testcode+0xb0>
  b8:	00000113          	li	sp,0
  bc:	0020a023          	sw	sp,0(ra)
  c0:	444442b7          	lui	t0,0x44444
  c4:	44428293          	addi	t0,t0,1092 # 44444444 <_end+0x44443404>
  c8:	f2511ee3          	bne	sp,t0,4 <fail_loop>
  cc:	00001097          	auipc	ra,0x1
  d0:	f5408093          	addi	ra,ra,-172 # 1020 <test_B3_res>
  d4:	00500293          	li	t0,5
  d8:	00600313          	li	t1,6
  dc:	55555137          	lui	sp,0x55555
  e0:	55510113          	addi	sp,sp,1365 # 55555555 <_end+0x55554515>
  e4:	0062c463          	blt	t0,t1,ec <begin_testcode+0xe0>
  e8:	00000113          	li	sp,0
  ec:	0020a023          	sw	sp,0(ra)
  f0:	555552b7          	lui	t0,0x55555
  f4:	55528293          	addi	t0,t0,1365 # 55555555 <_end+0x55554515>
  f8:	f05116e3          	bne	sp,t0,4 <fail_loop>
  fc:	00001097          	auipc	ra,0x1
 100:	f2808093          	addi	ra,ra,-216 # 1024 <test_B4_res>
 104:	00500293          	li	t0,5
 108:	00600313          	li	t1,6
 10c:	66666137          	lui	sp,0x66666
 110:	66610113          	addi	sp,sp,1638 # 66666666 <_end+0x66665626>
 114:	0062e463          	bltu	t0,t1,11c <begin_testcode+0x110>
 118:	00000113          	li	sp,0
 11c:	0020a023          	sw	sp,0(ra)
 120:	666662b7          	lui	t0,0x66666
 124:	66628293          	addi	t0,t0,1638 # 66666666 <_end+0x66665626>
 128:	ec511ee3          	bne	sp,t0,4 <fail_loop>
 12c:	00001097          	auipc	ra,0x1
 130:	efc08093          	addi	ra,ra,-260 # 1028 <test_B5_res>
 134:	00500293          	li	t0,5
 138:	00600313          	li	t1,6
 13c:	77777137          	lui	sp,0x77777
 140:	77710113          	addi	sp,sp,1911 # 77777777 <_end+0x77776737>
 144:	00535463          	ble	t0,t1,14c <begin_testcode+0x140>
 148:	00000113          	li	sp,0
 14c:	0020a023          	sw	sp,0(ra)
 150:	777772b7          	lui	t0,0x77777
 154:	77728293          	addi	t0,t0,1911 # 77777777 <_end+0x77776737>
 158:	ea5116e3          	bne	sp,t0,4 <fail_loop>
 15c:	00001097          	auipc	ra,0x1
 160:	ed008093          	addi	ra,ra,-304 # 102c <test_B6_res>
 164:	00500293          	li	t0,5
 168:	00600313          	li	t1,6
 16c:	88889137          	lui	sp,0x88889
 170:	88810113          	addi	sp,sp,-1912 # 88888888 <_end+0x88887848>
 174:	00537463          	bleu	t0,t1,17c <begin_testcode+0x170>
 178:	00000113          	li	sp,0
 17c:	0020a023          	sw	sp,0(ra)
 180:	888892b7          	lui	t0,0x88889
 184:	88828293          	addi	t0,t0,-1912 # 88888888 <_end+0x88887848>
 188:	e6511ee3          	bne	sp,t0,4 <fail_loop>
 18c:	6740006f          	j	800 <ok_loop>

00000190 <end_testcode>:
 190:	c0001073          	unimp
	...

Disassembly of section .tohost:

00000800 <ok_loop>:
 800:	0000006f          	j	800 <ok_loop>

Disassembly of section .data:

00001000 <begin_signature>:
    1000:	bbbbbbbb          	0xbbbbbbbb
    1004:	bbbbbbbb          	0xbbbbbbbb
    1008:	bbbbbbbb          	0xbbbbbbbb
    100c:	bbbbbbbb          	0xbbbbbbbb

00001010 <test_A1_res>:
    1010:	ffff                	0xffff
    1012:	ffff                	0xffff

00001014 <test_A2_res>:
    1014:	ffff                	0xffff
    1016:	ffff                	0xffff

00001018 <test_B1_res>:
    1018:	ffff                	0xffff
    101a:	ffff                	0xffff

0000101c <test_B2_res>:
    101c:	ffff                	0xffff
    101e:	ffff                	0xffff

00001020 <test_B3_res>:
    1020:	ffff                	0xffff
    1022:	ffff                	0xffff

00001024 <test_B4_res>:
    1024:	ffff                	0xffff
    1026:	ffff                	0xffff

00001028 <test_B5_res>:
    1028:	ffff                	0xffff
    102a:	ffff                	0xffff

0000102c <test_B6_res>:
    102c:	ffff                	0xffff
    102e:	ffff                	0xffff

00001030 <end_signature>:
    1030:	eeee                	fsw	fs11,92(sp)
    1032:	eeee                	fsw	fs11,92(sp)
    1034:	eeee                	fsw	fs11,92(sp)
    1036:	eeee                	fsw	fs11,92(sp)
    1038:	eeee                	fsw	fs11,92(sp)
    103a:	eeee                	fsw	fs11,92(sp)
    103c:	eeee                	fsw	fs11,92(sp)
    103e:	eeee                	fsw	fs11,92(sp)
