
startfiles:     file format elf32-littleriscv


Disassembly of section .text.init:

00000000 <_start>:
   0:	0080006f          	j	8 <reset_vector>

00000004 <fail_loop>:
   4:	0000006f          	j	4 <fail_loop>

00000008 <reset_vector>:
   8:	00000193          	li	gp,0

0000000c <begin_testcode>:
   c:	00000293          	li	t0,0
  10:	fe501ae3          	bne	zero,t0,4 <fail_loop>
  14:	00001097          	auipc	ra,0x1
  18:	00c08093          	addi	ra,ra,12 # 1020 <test_A1_res>
  1c:	12345137          	lui	sp,0x12345
  20:	67810113          	addi	sp,sp,1656 # 12345678 <_end+0x123445f8>
  24:	0080006f          	j	2c <begin_testcode+0x20>
  28:	00000113          	li	sp,0
  2c:	0000a023          	sw	zero,0(ra)
  30:	0020a223          	sw	sp,4(ra)
  34:	00000293          	li	t0,0
  38:	fc5016e3          	bne	zero,t0,4 <fail_loop>
  3c:	123452b7          	lui	t0,0x12345
  40:	67828293          	addi	t0,t0,1656 # 12345678 <_end+0x123445f8>
  44:	fc5110e3          	bne	sp,t0,4 <fail_loop>
  48:	00001097          	auipc	ra,0x1
  4c:	fe008093          	addi	ra,ra,-32 # 1028 <test_A2_res>
  50:	fff00113          	li	sp,-1
  54:	fff00193          	li	gp,-1
  58:	0fedd237          	lui	tp,0xfedd
  5c:	ba920213          	addi	tp,tp,-1111 # fedcba9 <_end+0xfedbb29>
  60:	0280006f          	j	88 <begin_testcode+0x7c>
  64:	00000113          	li	sp,0
  68:	00000193          	li	gp,0
  6c:	00000213          	li	tp,0
  70:	876541b7          	lui	gp,0x87654
  74:	32118193          	addi	gp,gp,801 # 87654321 <_end+0x876532a1>
  78:	0280006f          	j	a0 <begin_testcode+0x94>
  7c:	00000113          	li	sp,0
  80:	00000193          	li	gp,0
  84:	00000213          	li	tp,0
  88:	9abce137          	lui	sp,0x9abce
  8c:	ef010113          	addi	sp,sp,-272 # 9abcdef0 <_end+0x9abcce70>
  90:	fe1ff06f          	j	70 <begin_testcode+0x64>
  94:	00000113          	li	sp,0
  98:	00000193          	li	gp,0
  9c:	00000213          	li	tp,0
  a0:	0000a023          	sw	zero,0(ra)
  a4:	0020a223          	sw	sp,4(ra)
  a8:	0030a423          	sw	gp,8(ra)
  ac:	0040a623          	sw	tp,12(ra)
  b0:	00000293          	li	t0,0
  b4:	f45018e3          	bne	zero,t0,4 <fail_loop>
  b8:	9abce2b7          	lui	t0,0x9abce
  bc:	ef028293          	addi	t0,t0,-272 # 9abcdef0 <_end+0x9abcce70>
  c0:	f45112e3          	bne	sp,t0,4 <fail_loop>
  c4:	876542b7          	lui	t0,0x87654
  c8:	32128293          	addi	t0,t0,801 # 87654321 <_end+0x876532a1>
  cc:	f2519ce3          	bne	gp,t0,4 <fail_loop>
  d0:	0fedd2b7          	lui	t0,0xfedd
  d4:	ba928293          	addi	t0,t0,-1111 # fedcba9 <_end+0xfedbb29>
  d8:	f25216e3          	bne	tp,t0,4 <fail_loop>
  dc:	00001497          	auipc	s1,0x1
  e0:	f2448493          	addi	s1,s1,-220 # 1000 <test_B1_data>
  e4:	00001517          	auipc	a0,0x1
  e8:	f5450513          	addi	a0,a0,-172 # 1038 <test_B1_res>
  ec:	fff00113          	li	sp,-1
  f0:	fff00193          	li	gp,-1
  f4:	fff00213          	li	tp,-1
  f8:	fff00293          	li	t0,-1
  fc:	55555337          	lui	t1,0x55555
 100:	55530313          	addi	t1,t1,1365 # 55555555 <_end+0x555544d5>
 104:	0004ac83          	lw	s9,0(s1)
 108:	0044ac03          	lw	s8,4(s1)
 10c:	01c000ef          	jal	ra,128 <B1b_link+0xc>

00000110 <B1a_link>:
 110:	222221b7          	lui	gp,0x22222
 114:	22218193          	addi	gp,gp,546 # 22222222 <_end+0x222211a2>
 118:	03000fef          	jal	t6,148 <B1b_link+0x2c>

0000011c <B1b_link>:
 11c:	444442b7          	lui	t0,0x44444
 120:	44428293          	addi	t0,t0,1092 # 44444444 <_end+0x444433c4>
 124:	0440006f          	j	168 <B1b_link+0x4c>
 128:	11111137          	lui	sp,0x11111
 12c:	11110113          	addi	sp,sp,273 # 11111111 <_end+0x11110091>
 130:	00008067          	ret
 134:	00000113          	li	sp,0
 138:	00000193          	li	gp,0
 13c:	00000213          	li	tp,0
 140:	00000293          	li	t0,0
 144:	00000313          	li	t1,0
 148:	33333237          	lui	tp,0x33333
 14c:	33320213          	addi	tp,tp,819 # 33333333 <_end+0x333322b3>
 150:	000f8067          	jr	t6
 154:	00000113          	li	sp,0
 158:	00000193          	li	gp,0
 15c:	00000213          	li	tp,0
 160:	00000293          	li	t0,0
 164:	00000313          	li	t1,0
 168:	0190c3b3          	xor	t2,ra,s9
 16c:	018fc433          	xor	s0,t6,s8
 170:	00252023          	sw	sp,0(a0)
 174:	00352223          	sw	gp,4(a0)
 178:	00452423          	sw	tp,8(a0)
 17c:	00552623          	sw	t0,12(a0)
 180:	00652823          	sw	t1,16(a0)
 184:	00752a23          	sw	t2,20(a0)
 188:	00852c23          	sw	s0,24(a0)
 18c:	111112b7          	lui	t0,0x11111
 190:	11128293          	addi	t0,t0,273 # 11111111 <_end+0x11110091>
 194:	e65118e3          	bne	sp,t0,4 <fail_loop>
 198:	222222b7          	lui	t0,0x22222
 19c:	22228293          	addi	t0,t0,546 # 22222222 <_end+0x222211a2>
 1a0:	e65192e3          	bne	gp,t0,4 <fail_loop>
 1a4:	333332b7          	lui	t0,0x33333
 1a8:	33328293          	addi	t0,t0,819 # 33333333 <_end+0x333322b3>
 1ac:	e4521ce3          	bne	tp,t0,4 <fail_loop>
 1b0:	00000293          	li	t0,0
 1b4:	e45298e3          	bne	t0,t0,4 <fail_loop>
 1b8:	555552b7          	lui	t0,0x55555
 1bc:	55528293          	addi	t0,t0,1365 # 55555555 <_end+0x555544d5>
 1c0:	e45312e3          	bne	t1,t0,4 <fail_loop>
 1c4:	00000293          	li	t0,0
 1c8:	e2539ee3          	bne	t2,t0,4 <fail_loop>
 1cc:	00000293          	li	t0,0
 1d0:	e2541ae3          	bne	s0,t0,4 <fail_loop>
 1d4:	00001497          	auipc	s1,0x1
 1d8:	e3448493          	addi	s1,s1,-460 # 1008 <test_B2_data>
 1dc:	00001517          	auipc	a0,0x1
 1e0:	e7850513          	addi	a0,a0,-392 # 1054 <test_B2_res>
 1e4:	fff00113          	li	sp,-1
 1e8:	fff00193          	li	gp,-1
 1ec:	fff00213          	li	tp,-1
 1f0:	fff00293          	li	t0,-1
 1f4:	fff00313          	li	t1,-1
 1f8:	0004ac03          	lw	s8,0(s1)
 1fc:	0044ac83          	lw	s9,4(s1)
 200:	0240006f          	j	224 <B1b_link+0x108>
 204:	777771b7          	lui	gp,0x77777
 208:	77718193          	addi	gp,gp,1911 # 77777777 <_end+0x777766f7>
 20c:	000f8067          	jr	t6
 210:	00000113          	li	sp,0
 214:	00000193          	li	gp,0
 218:	00000213          	li	tp,0
 21c:	00000293          	li	t0,0
 220:	00000313          	li	t1,0
 224:	66666137          	lui	sp,0x66666
 228:	66610113          	addi	sp,sp,1638 # 66666666 <_end+0x666655e6>
 22c:	fd9fffef          	jal	t6,204 <B1b_link+0xe8>

00000230 <B2b_link>:
 230:	88889237          	lui	tp,0x88889
 234:	88820213          	addi	tp,tp,-1912 # 88888888 <_end+0x88887808>
 238:	010000ef          	jal	ra,248 <B2c_link+0xc>

0000023c <B2c_link>:
 23c:	aaaab337          	lui	t1,0xaaaab
 240:	aaa30313          	addi	t1,t1,-1366 # aaaaaaaa <_end+0xaaaa9a2a>
 244:	0240006f          	j	268 <B2c_link+0x2c>
 248:	9999a2b7          	lui	t0,0x9999a
 24c:	99928293          	addi	t0,t0,-1639 # 99999999 <_end+0x99998919>
 250:	00008067          	ret
 254:	00000113          	li	sp,0
 258:	00000193          	li	gp,0
 25c:	00000213          	li	tp,0
 260:	00000293          	li	t0,0
 264:	00000313          	li	t1,0
 268:	018fc3b3          	xor	t2,t6,s8
 26c:	0190c433          	xor	s0,ra,s9
 270:	00252023          	sw	sp,0(a0)
 274:	00352223          	sw	gp,4(a0)
 278:	00452423          	sw	tp,8(a0)
 27c:	00552623          	sw	t0,12(a0)
 280:	00652823          	sw	t1,16(a0)
 284:	00752a23          	sw	t2,20(a0)
 288:	00852c23          	sw	s0,24(a0)
 28c:	666662b7          	lui	t0,0x66666
 290:	66628293          	addi	t0,t0,1638 # 66666666 <_end+0x666655e6>
 294:	d65118e3          	bne	sp,t0,4 <fail_loop>
 298:	777772b7          	lui	t0,0x77777
 29c:	77728293          	addi	t0,t0,1911 # 77777777 <_end+0x777766f7>
 2a0:	d65192e3          	bne	gp,t0,4 <fail_loop>
 2a4:	888892b7          	lui	t0,0x88889
 2a8:	88828293          	addi	t0,t0,-1912 # 88888888 <_end+0x88887808>
 2ac:	d4521ce3          	bne	tp,t0,4 <fail_loop>
 2b0:	00000293          	li	t0,0
 2b4:	d45298e3          	bne	t0,t0,4 <fail_loop>
 2b8:	aaaab2b7          	lui	t0,0xaaaab
 2bc:	aaa28293          	addi	t0,t0,-1366 # aaaaaaaa <_end+0xaaaa9a2a>
 2c0:	d45312e3          	bne	t1,t0,4 <fail_loop>
 2c4:	00000293          	li	t0,0
 2c8:	d2539ee3          	bne	t2,t0,4 <fail_loop>
 2cc:	00000293          	li	t0,0
 2d0:	d2541ae3          	bne	s0,t0,4 <fail_loop>
 2d4:	52c0006f          	j	800 <ok_loop>

000002d8 <end_testcode>:
 2d8:	c0001073          	unimp
	...

Disassembly of section .tohost:

00000800 <ok_loop>:
 800:	0000006f          	j	800 <ok_loop>

Disassembly of section .data:

00001000 <test_B1_data>:
    1000:	0110                	addi	a2,sp,128
    1002:	0000                	unimp
    1004:	011c                	addi	a5,sp,128
	...

00001008 <test_B2_data>:
    1008:	0230                	addi	a2,sp,264
    100a:	0000                	unimp
    100c:	023c                	addi	a5,sp,264
	...

00001010 <begin_signature>:
    1010:	bbbbbbbb          	0xbbbbbbbb
    1014:	bbbbbbbb          	0xbbbbbbbb
    1018:	bbbbbbbb          	0xbbbbbbbb
    101c:	bbbbbbbb          	0xbbbbbbbb

00001020 <test_A1_res>:
    1020:	ffff                	0xffff
    1022:	ffff                	0xffff
    1024:	ffff                	0xffff
    1026:	ffff                	0xffff

00001028 <test_A2_res>:
    1028:	ffff                	0xffff
    102a:	ffff                	0xffff
    102c:	ffff                	0xffff
    102e:	ffff                	0xffff
    1030:	ffff                	0xffff
    1032:	ffff                	0xffff
    1034:	ffff                	0xffff
    1036:	ffff                	0xffff

00001038 <test_B1_res>:
    1038:	ffff                	0xffff
    103a:	ffff                	0xffff
    103c:	ffff                	0xffff
    103e:	ffff                	0xffff
    1040:	ffff                	0xffff
    1042:	ffff                	0xffff
    1044:	ffff                	0xffff
    1046:	ffff                	0xffff
    1048:	ffff                	0xffff
    104a:	ffff                	0xffff
    104c:	ffff                	0xffff
    104e:	ffff                	0xffff
    1050:	ffff                	0xffff
    1052:	ffff                	0xffff

00001054 <test_B2_res>:
    1054:	ffff                	0xffff
    1056:	ffff                	0xffff
    1058:	ffff                	0xffff
    105a:	ffff                	0xffff
    105c:	ffff                	0xffff
    105e:	ffff                	0xffff
    1060:	ffff                	0xffff
    1062:	ffff                	0xffff
    1064:	ffff                	0xffff
    1066:	ffff                	0xffff
    1068:	ffff                	0xffff
    106a:	ffff                	0xffff
    106c:	ffff                	0xffff
    106e:	ffff                	0xffff

00001070 <end_signature>:
    1070:	eeee                	fsw	fs11,92(sp)
    1072:	eeee                	fsw	fs11,92(sp)
    1074:	eeee                	fsw	fs11,92(sp)
    1076:	eeee                	fsw	fs11,92(sp)
    1078:	eeee                	fsw	fs11,92(sp)
    107a:	eeee                	fsw	fs11,92(sp)
    107c:	eeee                	fsw	fs11,92(sp)
    107e:	eeee                	fsw	fs11,92(sp)
