
startfiles:     file format elf32-littleriscv


Disassembly of section .text.init:

00000000 <_start>:
   0:	0080006f          	j	8 <reset_vector>

00000004 <fail_loop>:
   4:	0000006f          	j	4 <fail_loop>

00000008 <reset_vector>:
   8:	00000193          	li	gp,0

0000000c <begin_testcode>:
   c:	00000293          	li	t0,0
  10:	fe501ae3          	bne	zero,t0,4 <fail_loop>
  14:	00001f97          	auipc	t6,0x1
  18:	fecf8f93          	addi	t6,t6,-20 # 1000 <test_A1_data>
  1c:	00001117          	auipc	sp,0x1
  20:	03410113          	addi	sp,sp,52 # 1050 <test_A1_res>
  24:	000fc183          	lbu	gp,0(t6)
  28:	001fc203          	lbu	tp,1(t6)
  2c:	002fc283          	lbu	t0,2(t6)
  30:	003fc303          	lbu	t1,3(t6)
  34:	00312023          	sw	gp,0(sp)
  38:	00412223          	sw	tp,4(sp)
  3c:	00512423          	sw	t0,8(sp)
  40:	00612623          	sw	t1,12(sp)
  44:	02200293          	li	t0,34
  48:	fa519ee3          	bne	gp,t0,4 <fail_loop>
  4c:	0f200293          	li	t0,242
  50:	fa521ae3          	bne	tp,t0,4 <fail_loop>
  54:	01100293          	li	t0,17
  58:	fa5296e3          	bne	t0,t0,4 <fail_loop>
  5c:	01100293          	li	t0,17
  60:	fa5312e3          	bne	t1,t0,4 <fail_loop>
  64:	00001c17          	auipc	s8,0x1
  68:	fa1c0c13          	addi	s8,s8,-95 # 1005 <test_A2_data+0x1>
  6c:	00001297          	auipc	t0,0x1
  70:	ff428293          	addi	t0,t0,-12 # 1060 <test_A2_res>
  74:	fffc4c83          	lbu	s9,-1(s8)
  78:	000c4d03          	lbu	s10,0(s8)
  7c:	001c4d83          	lbu	s11,1(s8)
  80:	002c4e03          	lbu	t3,2(s8)
  84:	0192a023          	sw	s9,0(t0)
  88:	01a2a223          	sw	s10,4(t0)
  8c:	01b2a423          	sw	s11,8(t0)
  90:	01c2a623          	sw	t3,12(t0)
  94:	0f400293          	li	t0,244
  98:	f65c96e3          	bne	s9,t0,4 <fail_loop>
  9c:	04400293          	li	t0,68
  a0:	f65d12e3          	bne	s10,t0,4 <fail_loop>
  a4:	03300293          	li	t0,51
  a8:	f45d9ee3          	bne	s11,t0,4 <fail_loop>
  ac:	0f300293          	li	t0,243
  b0:	f45e1ae3          	bne	t3,t0,4 <fail_loop>
  b4:	00001397          	auipc	t2,0x1
  b8:	f5338393          	addi	t2,t2,-173 # 1007 <test_A2_data+0x3>
  bc:	00001417          	auipc	s0,0x1
  c0:	fb440413          	addi	s0,s0,-76 # 1070 <test_A3_res>
  c4:	0013cf03          	lbu	t5,1(t2)
  c8:	0023cf83          	lbu	t6,2(t2)
  cc:	0033c083          	lbu	ra,3(t2)
  d0:	0043c103          	lbu	sp,4(t2)
  d4:	01e42023          	sw	t5,0(s0)
  d8:	01f42223          	sw	t6,4(s0)
  dc:	00142423          	sw	ra,8(s0)
  e0:	00242623          	sw	sp,12(s0)
  e4:	06600293          	li	t0,102
  e8:	f05f1ee3          	bne	t5,t0,4 <fail_loop>
  ec:	0f600293          	li	t0,246
  f0:	f05f9ae3          	bne	t6,t0,4 <fail_loop>
  f4:	05500293          	li	t0,85
  f8:	f05116e3          	bne	sp,t0,4 <fail_loop>
  fc:	00001517          	auipc	a0,0x1
 100:	71050513          	addi	a0,a0,1808 # 180c <_end+0x71c>
 104:	00001597          	auipc	a1,0x1
 108:	f7c58593          	addi	a1,a1,-132 # 1080 <test_A4_res>
 10c:	80054603          	lbu	a2,-2048(a0)
 110:	80154683          	lbu	a3,-2047(a0)
 114:	80254703          	lbu	a4,-2046(a0)
 118:	80354783          	lbu	a5,-2045(a0)
 11c:	00c5a023          	sw	a2,0(a1)
 120:	00d5a223          	sw	a3,4(a1)
 124:	00e5a423          	sw	a4,8(a1)
 128:	00f5a623          	sw	a5,12(a1)
 12c:	0f800293          	li	t0,248
 130:	ec561ae3          	bne	a2,t0,4 <fail_loop>
 134:	08800293          	li	t0,136
 138:	ec5696e3          	bne	a3,t0,4 <fail_loop>
 13c:	07700293          	li	t0,119
 140:	ec5712e3          	bne	a4,t0,4 <fail_loop>
 144:	0f700293          	li	t0,247
 148:	ea579ee3          	bne	a5,t0,4 <fail_loop>
 14c:	00000697          	auipc	a3,0x0
 150:	6c868693          	addi	a3,a3,1736 # 814 <ok_loop+0x14>
 154:	00001717          	auipc	a4,0x1
 158:	f3c70713          	addi	a4,a4,-196 # 1090 <test_A5_res>
 15c:	7fc6c783          	lbu	a5,2044(a3)
 160:	7fd6c803          	lbu	a6,2045(a3)
 164:	7fe6c883          	lbu	a7,2046(a3)
 168:	7ff6c903          	lbu	s2,2047(a3)
 16c:	00f72023          	sw	a5,0(a4)
 170:	01072223          	sw	a6,4(a4)
 174:	01172423          	sw	a7,8(a4)
 178:	01272623          	sw	s2,12(a4)
 17c:	0aa00293          	li	t0,170
 180:	e85792e3          	bne	a5,t0,4 <fail_loop>
 184:	00a00293          	li	t0,10
 188:	e6581ee3          	bne	a6,t0,4 <fail_loop>
 18c:	00900293          	li	t0,9
 190:	e6589ae3          	bne	a7,t0,4 <fail_loop>
 194:	09900293          	li	t0,153
 198:	e65916e3          	bne	s2,t0,4 <fail_loop>
 19c:	00001817          	auipc	a6,0x1
 1a0:	e7c80813          	addi	a6,a6,-388 # 1018 <test_B_data>
 1a4:	00001897          	auipc	a7,0x1
 1a8:	efc88893          	addi	a7,a7,-260 # 10a0 <test_B_res>
 1ac:	ffc84903          	lbu	s2,-4(a6)
 1b0:	ffd84983          	lbu	s3,-3(a6)
 1b4:	ffe84a03          	lbu	s4,-2(a6)
 1b8:	fff84a83          	lbu	s5,-1(a6)
 1bc:	00084b03          	lbu	s6,0(a6)
 1c0:	00184b83          	lbu	s7,1(a6)
 1c4:	00284c03          	lbu	s8,2(a6)
 1c8:	00384c83          	lbu	s9,3(a6)
 1cc:	00484d03          	lbu	s10,4(a6)
 1d0:	00584d83          	lbu	s11,5(a6)
 1d4:	00684e03          	lbu	t3,6(a6)
 1d8:	00784e83          	lbu	t4,7(a6)
 1dc:	0128a023          	sw	s2,0(a7)
 1e0:	0138a223          	sw	s3,4(a7)
 1e4:	0148a423          	sw	s4,8(a7)
 1e8:	0158a623          	sw	s5,12(a7)
 1ec:	0168a823          	sw	s6,16(a7)
 1f0:	0178aa23          	sw	s7,20(a7)
 1f4:	0188ac23          	sw	s8,24(a7)
 1f8:	0198ae23          	sw	s9,28(a7)
 1fc:	03a8a023          	sw	s10,32(a7)
 200:	03b8a223          	sw	s11,36(a7)
 204:	03c8a423          	sw	t3,40(a7)
 208:	03d8a623          	sw	t4,44(a7)
 20c:	00c00293          	li	t0,12
 210:	de591ae3          	bne	s2,t0,4 <fail_loop>
 214:	0cc00293          	li	t0,204
 218:	de5996e3          	bne	s3,t0,4 <fail_loop>
 21c:	0bb00293          	li	t0,187
 220:	de5a12e3          	bne	s4,t0,4 <fail_loop>
 224:	00b00293          	li	t0,11
 228:	dc5a9ee3          	bne	s5,t0,4 <fail_loop>
 22c:	0ee00293          	li	t0,238
 230:	dc5b1ae3          	bne	s6,t0,4 <fail_loop>
 234:	00e00293          	li	t0,14
 238:	dc5b96e3          	bne	s7,t0,4 <fail_loop>
 23c:	00d00293          	li	t0,13
 240:	dc5c12e3          	bne	s8,t0,4 <fail_loop>
 244:	0dd00293          	li	t0,221
 248:	da5c9ee3          	bne	s9,t0,4 <fail_loop>
 24c:	0f000293          	li	t0,240
 250:	da5d1ae3          	bne	s10,t0,4 <fail_loop>
 254:	00000293          	li	t0,0
 258:	da5d96e3          	bne	s11,t0,4 <fail_loop>
 25c:	0ff00293          	li	t0,255
 260:	da5e12e3          	bne	t3,t0,4 <fail_loop>
 264:	00f00293          	li	t0,15
 268:	d85e9ee3          	bne	t4,t0,4 <fail_loop>
 26c:	00001a97          	auipc	s5,0x1
 270:	db4a8a93          	addi	s5,s5,-588 # 1020 <test_C_data>
 274:	00001b17          	auipc	s6,0x1
 278:	e5cb0b13          	addi	s6,s6,-420 # 10d0 <test_C_res>
 27c:	000ac003          	lbu	zero,0(s5)
 280:	000b2023          	sw	zero,0(s6)
 284:	00000293          	li	t0,0
 288:	d6501ee3          	bne	zero,t0,4 <fail_loop>
 28c:	00001a97          	auipc	s5,0x1
 290:	d98a8a93          	addi	s5,s5,-616 # 1024 <test_D_data>
 294:	00001b17          	auipc	s6,0x1
 298:	e40b0b13          	addi	s6,s6,-448 # 10d4 <test_D_res>
 29c:	000aab83          	lw	s7,0(s5)
 2a0:	000bcc03          	lbu	s8,0(s7)
 2a4:	000c0c93          	mv	s9,s8
 2a8:	019b2023          	sw	s9,0(s6)
 2ac:	0f000293          	li	t0,240
 2b0:	d45c9ae3          	bne	s9,t0,4 <fail_loop>
 2b4:	00001c97          	auipc	s9,0x1
 2b8:	d78c8c93          	addi	s9,s9,-648 # 102c <test_E1_data>
 2bc:	00001d17          	auipc	s10,0x1
 2c0:	e1cd0d13          	addi	s10,s10,-484 # 10d8 <test_E1_res>
 2c4:	000ccc83          	lbu	s9,0(s9)
 2c8:	019d2023          	sw	s9,0(s10)
 2cc:	01000293          	li	t0,16
 2d0:	d25c9ae3          	bne	s9,t0,4 <fail_loop>
 2d4:	00001d97          	auipc	s11,0x1
 2d8:	d5dd8d93          	addi	s11,s11,-675 # 1031 <test_E2_data+0x1>
 2dc:	00001e17          	auipc	t3,0x1
 2e0:	e00e0e13          	addi	t3,t3,-512 # 10dc <test_E2_res>
 2e4:	fffdcd83          	lbu	s11,-1(s11)
 2e8:	01be2023          	sw	s11,0(t3)
 2ec:	09800293          	li	t0,152
 2f0:	d05d9ae3          	bne	s11,t0,4 <fail_loop>
 2f4:	50c0006f          	j	800 <ok_loop>

000002f8 <end_testcode>:
 2f8:	c0001073          	unimp
	...

Disassembly of section .tohost:

00000800 <ok_loop>:
 800:	0000006f          	j	800 <ok_loop>

Disassembly of section .data:

00001000 <test_A1_data>:
    1000:	f222                	fsw	fs0,36(sp)
    1002:	11f1                	addi	gp,gp,-4

00001004 <test_A2_data>:
    1004:	44f4                	lw	a3,76(s1)
    1006:	          	0xf666f333

00001008 <test_A3_data>:
    1008:	f666                	fsw	fs9,44(sp)
    100a:	55f5                	li	a1,-3

0000100c <test_A4_data>:
    100c:	88f8                	0x88f8
    100e:	          	0xaaaf777

00001010 <test_A5_data>:
    1010:	0aaa                	slli	s5,s5,0xa
    1012:	9909                	andi	a0,a0,-30
    1014:	cc0c                	sw	a1,24(s0)
    1016:	          	0xeee0bbb

00001018 <test_B_data>:
    1018:	0eee                	slli	t4,t4,0x1b
    101a:	dd0d                	beqz	a0,f54 <ok_loop+0x754>
    101c:	00f0                	addi	a2,sp,76
    101e:	0fff                	0xfff

00001020 <test_C_data>:
    1020:	5678                	lw	a4,108(a2)
    1022:	1234                	addi	a3,sp,296

00001024 <test_D_data>:
    1024:	1028                	addi	a0,sp,40
	...

00001028 <test_D_data2_label>:
    1028:	def0                	sw	a2,124(a3)
    102a:	9abc                	0x9abc

0000102c <test_E1_data>:
    102c:	3210                	fld	fa2,32(a2)
    102e:	7654                	flw	fa3,44(a2)

00001030 <test_E2_data>:
    1030:	ba98                	fsd	fa4,48(a3)
    1032:	fedc                	fsw	fa5,60(a3)
	...

00001040 <begin_signature>:
    1040:	bbbbbbbb          	0xbbbbbbbb
    1044:	bbbbbbbb          	0xbbbbbbbb
    1048:	bbbbbbbb          	0xbbbbbbbb
    104c:	bbbbbbbb          	0xbbbbbbbb

00001050 <test_A1_res>:
    1050:	ffff                	0xffff
    1052:	ffff                	0xffff
    1054:	ffff                	0xffff
    1056:	ffff                	0xffff
    1058:	ffff                	0xffff
    105a:	ffff                	0xffff
    105c:	ffff                	0xffff
    105e:	ffff                	0xffff

00001060 <test_A2_res>:
    1060:	ffff                	0xffff
    1062:	ffff                	0xffff
    1064:	ffff                	0xffff
    1066:	ffff                	0xffff
    1068:	ffff                	0xffff
    106a:	ffff                	0xffff
    106c:	ffff                	0xffff
    106e:	ffff                	0xffff

00001070 <test_A3_res>:
    1070:	ffff                	0xffff
    1072:	ffff                	0xffff
    1074:	ffff                	0xffff
    1076:	ffff                	0xffff
    1078:	ffff                	0xffff
    107a:	ffff                	0xffff
    107c:	ffff                	0xffff
    107e:	ffff                	0xffff

00001080 <test_A4_res>:
    1080:	ffff                	0xffff
    1082:	ffff                	0xffff
    1084:	ffff                	0xffff
    1086:	ffff                	0xffff
    1088:	ffff                	0xffff
    108a:	ffff                	0xffff
    108c:	ffff                	0xffff
    108e:	ffff                	0xffff

00001090 <test_A5_res>:
    1090:	ffff                	0xffff
    1092:	ffff                	0xffff
    1094:	ffff                	0xffff
    1096:	ffff                	0xffff
    1098:	ffff                	0xffff
    109a:	ffff                	0xffff
    109c:	ffff                	0xffff
    109e:	ffff                	0xffff

000010a0 <test_B_res>:
    10a0:	ffff                	0xffff
    10a2:	ffff                	0xffff
    10a4:	ffff                	0xffff
    10a6:	ffff                	0xffff
    10a8:	ffff                	0xffff
    10aa:	ffff                	0xffff
    10ac:	ffff                	0xffff
    10ae:	ffff                	0xffff
    10b0:	ffff                	0xffff
    10b2:	ffff                	0xffff
    10b4:	ffff                	0xffff
    10b6:	ffff                	0xffff
    10b8:	ffff                	0xffff
    10ba:	ffff                	0xffff
    10bc:	ffff                	0xffff
    10be:	ffff                	0xffff
    10c0:	ffff                	0xffff
    10c2:	ffff                	0xffff
    10c4:	ffff                	0xffff
    10c6:	ffff                	0xffff
    10c8:	ffff                	0xffff
    10ca:	ffff                	0xffff
    10cc:	ffff                	0xffff
    10ce:	ffff                	0xffff

000010d0 <test_C_res>:
    10d0:	ffff                	0xffff
    10d2:	ffff                	0xffff

000010d4 <test_D_res>:
    10d4:	ffff                	0xffff
    10d6:	ffff                	0xffff

000010d8 <test_E1_res>:
    10d8:	ffff                	0xffff
    10da:	ffff                	0xffff

000010dc <test_E2_res>:
    10dc:	ffff                	0xffff
    10de:	ffff                	0xffff

000010e0 <end_signature>:
    10e0:	eeee                	fsw	fs11,92(sp)
    10e2:	eeee                	fsw	fs11,92(sp)
    10e4:	eeee                	fsw	fs11,92(sp)
    10e6:	eeee                	fsw	fs11,92(sp)
    10e8:	eeee                	fsw	fs11,92(sp)
    10ea:	eeee                	fsw	fs11,92(sp)
    10ec:	eeee                	fsw	fs11,92(sp)
    10ee:	eeee                	fsw	fs11,92(sp)
