
startfiles:     file format elf32-littleriscv


Disassembly of section .text.init:

00000000 <_start>:
   0:	0080006f          	j	8 <reset_vector>

00000004 <fail_loop>:
   4:	0000006f          	j	4 <fail_loop>

00000008 <reset_vector>:
   8:	00000193          	li	gp,0

0000000c <begin_testcode>:
   c:	00000293          	li	t0,0
  10:	fe501ae3          	bne	zero,t0,4 <fail_loop>
  14:	00001797          	auipc	a5,0x1
  18:	00c78793          	addi	a5,a5,12 # 1020 <test_A_res>
  1c:	000000b7          	lui	ra,0x0
  20:	000011b7          	lui	gp,0x1
  24:	fffff2b7          	lui	t0,0xfffff
  28:	7ffffeb7          	lui	t4,0x7ffff
  2c:	80000fb7          	lui	t6,0x80000
  30:	0017a023          	sw	ra,0(a5)
  34:	0037a223          	sw	gp,4(a5)
  38:	0057a423          	sw	t0,8(a5)
  3c:	01d7a623          	sw	t4,12(a5)
  40:	01f7a823          	sw	t6,16(a5)
  44:	00000293          	li	t0,0
  48:	fa509ee3          	bne	ra,t0,4 <fail_loop>
  4c:	000012b7          	lui	t0,0x1
  50:	fa519ae3          	bne	gp,t0,4 <fail_loop>
  54:	00000293          	li	t0,0
  58:	fa5296e3          	bne	t0,t0,4 <fail_loop>
  5c:	7ffff2b7          	lui	t0,0x7ffff
  60:	fa5e92e3          	bne	t4,t0,4 <fail_loop>
  64:	800002b7          	lui	t0,0x80000
  68:	f85f9ee3          	bne	t6,t0,4 <fail_loop>
  6c:	00001797          	auipc	a5,0x1
  70:	f9478793          	addi	a5,a5,-108 # 1000 <test_B_data>
  74:	00001817          	auipc	a6,0x1
  78:	fc080813          	addi	a6,a6,-64 # 1034 <test_B_res>
  7c:	0007a103          	lw	sp,0(a5)
  80:	0007a203          	lw	tp,0(a5)
  84:	0007a303          	lw	t1,0(a5)
  88:	0007ae03          	lw	t3,0(a5)
  8c:	0007af03          	lw	t5,0(a5)
  90:	80000137          	lui	sp,0x80000
  94:	7ffff237          	lui	tp,0x7ffff
  98:	00000337          	lui	t1,0x0
  9c:	00001e37          	lui	t3,0x1
  a0:	ffffff37          	lui	t5,0xfffff
  a4:	00282023          	sw	sp,0(a6)
  a8:	00482223          	sw	tp,4(a6)
  ac:	00682423          	sw	t1,8(a6)
  b0:	01c82623          	sw	t3,12(a6)
  b4:	01e82823          	sw	t5,16(a6)
  b8:	800002b7          	lui	t0,0x80000
  bc:	f45114e3          	bne	sp,t0,4 <fail_loop>
  c0:	7ffff2b7          	lui	t0,0x7ffff
  c4:	f45210e3          	bne	tp,t0,4 <fail_loop>
  c8:	00000293          	li	t0,0
  cc:	f2531ce3          	bne	t1,t0,4 <fail_loop>
  d0:	000012b7          	lui	t0,0x1
  d4:	f25e18e3          	bne	t3,t0,4 <fail_loop>
  d8:	fffff2b7          	lui	t0,0xfffff
  dc:	f25f14e3          	bne	t5,t0,4 <fail_loop>
  e0:	00001897          	auipc	a7,0x1
  e4:	f6888893          	addi	a7,a7,-152 # 1048 <test_C_res>
  e8:	427270b7          	lui	ra,0x42727
  ec:	e6f08093          	addi	ra,ra,-401 # 42726e6f <_end+0x42725dff>
  f0:	123457b7          	lui	a5,0x12345
  f4:	67878793          	addi	a5,a5,1656 # 12345678 <_end+0x12344608>
  f8:	9abcef37          	lui	t5,0x9abce
  fc:	ef0f0f13          	addi	t5,t5,-272 # 9abcdef0 <_end+0x9abcce80>
 100:	42727137          	lui	sp,0x42727
 104:	e6f10113          	addi	sp,sp,-401 # 42726e6f <_end+0x42725dff>
 108:	12345837          	lui	a6,0x12345
 10c:	67880813          	addi	a6,a6,1656 # 12345678 <_end+0x12344608>
 110:	9abcefb7          	lui	t6,0x9abce
 114:	ef0f8f93          	addi	t6,t6,-272 # 9abcdef0 <_end+0x9abcce80>
 118:	0018a023          	sw	ra,0(a7)
 11c:	00f8a223          	sw	a5,4(a7)
 120:	01e8a423          	sw	t5,8(a7)
 124:	0028a623          	sw	sp,12(a7)
 128:	0108a823          	sw	a6,16(a7)
 12c:	01f8aa23          	sw	t6,20(a7)
 130:	123452b7          	lui	t0,0x12345
 134:	67828293          	addi	t0,t0,1656 # 12345678 <_end+0x12344608>
 138:	ec5796e3          	bne	a5,t0,4 <fail_loop>
 13c:	9abce2b7          	lui	t0,0x9abce
 140:	ef028293          	addi	t0,t0,-272 # 9abcdef0 <_end+0x9abcce80>
 144:	ec5f10e3          	bne	t5,t0,4 <fail_loop>
 148:	427272b7          	lui	t0,0x42727
 14c:	e6f28293          	addi	t0,t0,-401 # 42726e6f <_end+0x42725dff>
 150:	ea511ae3          	bne	sp,t0,4 <fail_loop>
 154:	123452b7          	lui	t0,0x12345
 158:	67828293          	addi	t0,t0,1656 # 12345678 <_end+0x12344608>
 15c:	ea5814e3          	bne	a6,t0,4 <fail_loop>
 160:	9abce2b7          	lui	t0,0x9abce
 164:	ef028293          	addi	t0,t0,-272 # 9abcdef0 <_end+0x9abcce80>
 168:	e85f9ee3          	bne	t6,t0,4 <fail_loop>
 16c:	6940006f          	j	800 <ok_loop>

00000170 <end_testcode>:
 170:	c0001073          	unimp
	...

Disassembly of section .tohost:

00000800 <ok_loop>:
 800:	0000006f          	j	800 <ok_loop>

Disassembly of section .data:

00001000 <test_B_data>:
    1000:	1111                	addi	sp,sp,-28
    1002:	1111                	addi	sp,sp,-28
	...

00001010 <begin_signature>:
    1010:	bbbbbbbb          	0xbbbbbbbb
    1014:	bbbbbbbb          	0xbbbbbbbb
    1018:	bbbbbbbb          	0xbbbbbbbb
    101c:	bbbbbbbb          	0xbbbbbbbb

00001020 <test_A_res>:
    1020:	ffff                	0xffff
    1022:	ffff                	0xffff
    1024:	ffff                	0xffff
    1026:	ffff                	0xffff
    1028:	ffff                	0xffff
    102a:	ffff                	0xffff
    102c:	ffff                	0xffff
    102e:	ffff                	0xffff
    1030:	ffff                	0xffff
    1032:	ffff                	0xffff

00001034 <test_B_res>:
    1034:	ffff                	0xffff
    1036:	ffff                	0xffff
    1038:	ffff                	0xffff
    103a:	ffff                	0xffff
    103c:	ffff                	0xffff
    103e:	ffff                	0xffff
    1040:	ffff                	0xffff
    1042:	ffff                	0xffff
    1044:	ffff                	0xffff
    1046:	ffff                	0xffff

00001048 <test_C_res>:
    1048:	ffff                	0xffff
    104a:	ffff                	0xffff
    104c:	ffff                	0xffff
    104e:	ffff                	0xffff
    1050:	ffff                	0xffff
    1052:	ffff                	0xffff
    1054:	ffff                	0xffff
    1056:	ffff                	0xffff
    1058:	ffff                	0xffff
    105a:	ffff                	0xffff
    105c:	ffff                	0xffff
    105e:	ffff                	0xffff

00001060 <end_signature>:
    1060:	eeee                	fsw	fs11,92(sp)
    1062:	eeee                	fsw	fs11,92(sp)
    1064:	eeee                	fsw	fs11,92(sp)
    1066:	eeee                	fsw	fs11,92(sp)
    1068:	eeee                	fsw	fs11,92(sp)
    106a:	eeee                	fsw	fs11,92(sp)
    106c:	eeee                	fsw	fs11,92(sp)
    106e:	eeee                	fsw	fs11,92(sp)
