
startfiles:     file format elf32-littleriscv


Disassembly of section .text.init:

00000000 <_start>:
   0:	0080006f          	j	8 <reset_vector>

00000004 <fail_loop>:
   4:	0000006f          	j	4 <fail_loop>

00000008 <reset_vector>:
   8:	00000193          	li	gp,0

0000000c <begin_testcode>:
   c:	00000293          	li	t0,0
  10:	fe501ae3          	bne	zero,t0,4 <fail_loop>
  14:	00001817          	auipc	a6,0x1
  18:	ffc80813          	addi	a6,a6,-4 # 1010 <test_A1_res>
  1c:	42727037          	lui	zero,0x42727
  20:	e6f00013          	li	zero,-401
  24:	563330b7          	lui	ra,0x56333
  28:	24908093          	addi	ra,ra,585 # 56333249 <_end+0x56332199>
  2c:	2d562137          	lui	sp,0x2d562
  30:	05210113          	addi	sp,sp,82 # 2d562052 <_end+0x2d560fa2>
  34:	526971b7          	lui	gp,0x52697
  38:	36318193          	addi	gp,gp,867 # 52697363 <_end+0x526962b3>
  3c:	736b8237          	lui	tp,0x736b8
  40:	92020213          	addi	tp,tp,-1760 # 736b7920 <_end+0x736b6870>
  44:	737462b7          	lui	t0,0x73746
  48:	57228293          	addi	t0,t0,1394 # 73746572 <_end+0x737454c2>
  4c:	6e205337          	lui	t1,0x6e205
  50:	e6f30313          	addi	t1,t1,-401 # 6e204e6f <_end+0x6e203dbf>
  54:	4d6973b7          	lui	t2,0x4d697
  58:	c6138393          	addi	t2,t2,-927 # 4d696c61 <_end+0x4d695bb1>
  5c:	6f646437          	lui	s0,0x6f646
  60:	17340413          	addi	s0,s0,371 # 6f646173 <_end+0x6f6450c3>
  64:	6b7944b7          	lui	s1,0x6b794
  68:	06348493          	addi	s1,s1,99 # 6b794063 <_end+0x6b792fb3>
  6c:	74657537          	lui	a0,0x74657
  70:	27350513          	addi	a0,a0,627 # 74657273 <_end+0x746561c3>
  74:	286e75b7          	lui	a1,0x286e7
  78:	f7358593          	addi	a1,a1,-141 # 286e6f73 <_end+0x286e5ec3>
  7c:	656b2637          	lui	a2,0x656b2
  80:	04860613          	addi	a2,a2,72 # 656b2048 <_end+0x656b0f98>
  84:	205266b7          	lui	a3,0x20526
  88:	16468693          	addi	a3,a3,356 # 20526164 <_end+0x205250b4>
  8c:	6f6d3737          	lui	a4,0x6f6d3
  90:	92c70713          	addi	a4,a4,-1748 # 6f6d292c <_end+0x6f6d187c>
  94:	697037b7          	lui	a5,0x69703
  98:	e6378793          	addi	a5,a5,-413 # 69702e63 <_end+0x69701db3>
  9c:	00082023          	sw	zero,0(a6)
  a0:	00182223          	sw	ra,4(a6)
  a4:	00282423          	sw	sp,8(a6)
  a8:	00382623          	sw	gp,12(a6)
  ac:	00482823          	sw	tp,16(a6)
  b0:	00582a23          	sw	t0,20(a6)
  b4:	00682c23          	sw	t1,24(a6)
  b8:	00782e23          	sw	t2,28(a6)
  bc:	02882023          	sw	s0,32(a6)
  c0:	02982223          	sw	s1,36(a6)
  c4:	02a82423          	sw	a0,40(a6)
  c8:	02b82623          	sw	a1,44(a6)
  cc:	02c82823          	sw	a2,48(a6)
  d0:	02d82a23          	sw	a3,52(a6)
  d4:	02e82c23          	sw	a4,56(a6)
  d8:	02f82e23          	sw	a5,60(a6)
  dc:	00000293          	li	t0,0
  e0:	f25012e3          	bne	zero,t0,4 <fail_loop>
  e4:	2d5622b7          	lui	t0,0x2d562
  e8:	05228293          	addi	t0,t0,82 # 2d562052 <_end+0x2d560fa2>
  ec:	f0511ce3          	bne	sp,t0,4 <fail_loop>
  f0:	526972b7          	lui	t0,0x52697
  f4:	36328293          	addi	t0,t0,867 # 52697363 <_end+0x526962b3>
  f8:	f05196e3          	bne	gp,t0,4 <fail_loop>
  fc:	736b82b7          	lui	t0,0x736b8
 100:	92028293          	addi	t0,t0,-1760 # 736b7920 <_end+0x736b6870>
 104:	f05210e3          	bne	tp,t0,4 <fail_loop>
 108:	6e2052b7          	lui	t0,0x6e205
 10c:	e6f28293          	addi	t0,t0,-401 # 6e204e6f <_end+0x6e203dbf>
 110:	ee529ae3          	bne	t0,t0,4 <fail_loop>
 114:	6e2052b7          	lui	t0,0x6e205
 118:	e6f28293          	addi	t0,t0,-401 # 6e204e6f <_end+0x6e203dbf>
 11c:	ee5314e3          	bne	t1,t0,4 <fail_loop>
 120:	4d6972b7          	lui	t0,0x4d697
 124:	c6128293          	addi	t0,t0,-927 # 4d696c61 <_end+0x4d695bb1>
 128:	ec539ee3          	bne	t2,t0,4 <fail_loop>
 12c:	6f6462b7          	lui	t0,0x6f646
 130:	17328293          	addi	t0,t0,371 # 6f646173 <_end+0x6f6450c3>
 134:	ec5418e3          	bne	s0,t0,4 <fail_loop>
 138:	6b7942b7          	lui	t0,0x6b794
 13c:	06328293          	addi	t0,t0,99 # 6b794063 <_end+0x6b792fb3>
 140:	ec5492e3          	bne	s1,t0,4 <fail_loop>
 144:	286e72b7          	lui	t0,0x286e7
 148:	f7328293          	addi	t0,t0,-141 # 286e6f73 <_end+0x286e5ec3>
 14c:	ea559ce3          	bne	a1,t0,4 <fail_loop>
 150:	656b22b7          	lui	t0,0x656b2
 154:	04828293          	addi	t0,t0,72 # 656b2048 <_end+0x656b0f98>
 158:	ea5616e3          	bne	a2,t0,4 <fail_loop>
 15c:	205262b7          	lui	t0,0x20526
 160:	16428293          	addi	t0,t0,356 # 20526164 <_end+0x205250b4>
 164:	ea5690e3          	bne	a3,t0,4 <fail_loop>
 168:	6f6d32b7          	lui	t0,0x6f6d3
 16c:	92c28293          	addi	t0,t0,-1748 # 6f6d292c <_end+0x6f6d187c>
 170:	e8571ae3          	bne	a4,t0,4 <fail_loop>
 174:	697032b7          	lui	t0,0x69703
 178:	e6328293          	addi	t0,t0,-413 # 69702e63 <_end+0x69701db3>
 17c:	e85794e3          	bne	a5,t0,4 <fail_loop>
 180:	00001217          	auipc	tp,0x1
 184:	ed020213          	addi	tp,tp,-304 # 1050 <test_A2_res>
 188:	636f6837          	lui	a6,0x636f6
 18c:	46180813          	addi	a6,a6,1121 # 636f6461 <_end+0x636f53b1>
 190:	6a6578b7          	lui	a7,0x6a657
 194:	b4088893          	addi	a7,a7,-1216 # 6a656b40 <_end+0x6a655a90>
 198:	20287937          	lui	s2,0x20287
 19c:	86190913          	addi	s2,s2,-1951 # 20286861 <_end+0x202857b1>
 1a0:	616a69b7          	lui	s3,0x616a6
 1a4:	56b98993          	addi	s3,s3,1387 # 616a656b <_end+0x616a54bb>
 1a8:	61766a37          	lui	s4,0x61766
 1ac:	520a0a13          	addi	s4,s4,1312 # 61766520 <_end+0x61765470>
 1b0:	2e205ab7          	lui	s5,0x2e205
 1b4:	c65a8a93          	addi	s5,s5,-923 # 2e204c65 <_end+0x2e203bb5>
 1b8:	636f7b37          	lui	s6,0x636f7
 1bc:	d29b0b13          	addi	s6,s6,-727 # 636f6d29 <_end+0x636f5c79>
 1c0:	73697bb7          	lui	s7,0x73697
 1c4:	02eb8b93          	addi	s7,s7,46 # 7369702e <_end+0x73695f7e>
 1c8:	66208c37          	lui	s8,0x66208
 1cc:	96fc0c13          	addi	s8,s8,-1681 # 6620796f <_end+0x662068bf>
 1d0:	67652cb7          	lui	s9,0x67652
 1d4:	069c8c93          	addi	s9,s9,105 # 67652069 <_end+0x67650fb9>
 1d8:	65737d37          	lui	s10,0x65737
 1dc:	361d0d13          	addi	s10,s10,865 # 65737361 <_end+0x657362b1>
 1e0:	75732db7          	lui	s11,0x75732
 1e4:	06dd8d93          	addi	s11,s11,109 # 7573206d <_end+0x75730fbd>
 1e8:	3a291e37          	lui	t3,0x3a291
 1ec:	d0ae0e13          	addi	t3,t3,-758 # 3a290d0a <_end+0x3a28fc5a>
 1f0:	68697eb7          	lui	t4,0x68697
 1f4:	320e8e93          	addi	t4,t4,800 # 68697320 <_end+0x68696270>
 1f8:	61642f37          	lui	t5,0x61642
 1fc:	074f0f13          	addi	t5,t5,116 # 61642074 <_end+0x61640fc4>
 200:	75207fb7          	lui	t6,0x75207
 204:	265f8f93          	addi	t6,t6,613 # 75207265 <_end+0x752061b5>
 208:	01022023          	sw	a6,0(tp) # 0 <_start>
 20c:	01122223          	sw	a7,4(tp) # 4 <fail_loop>
 210:	01222423          	sw	s2,8(tp) # 8 <reset_vector>
 214:	01322623          	sw	s3,12(tp) # c <begin_testcode>
 218:	01422823          	sw	s4,16(tp) # 10 <begin_testcode+0x4>
 21c:	01522a23          	sw	s5,20(tp) # 14 <begin_testcode+0x8>
 220:	01622c23          	sw	s6,24(tp) # 18 <begin_testcode+0xc>
 224:	01722e23          	sw	s7,28(tp) # 1c <begin_testcode+0x10>
 228:	03822023          	sw	s8,32(tp) # 20 <begin_testcode+0x14>
 22c:	03922223          	sw	s9,36(tp) # 24 <begin_testcode+0x18>
 230:	03a22423          	sw	s10,40(tp) # 28 <begin_testcode+0x1c>
 234:	03b22623          	sw	s11,44(tp) # 2c <begin_testcode+0x20>
 238:	03c22823          	sw	t3,48(tp) # 30 <begin_testcode+0x24>
 23c:	03d22a23          	sw	t4,52(tp) # 34 <begin_testcode+0x28>
 240:	03e22c23          	sw	t5,56(tp) # 38 <begin_testcode+0x2c>
 244:	03f22e23          	sw	t6,60(tp) # 3c <begin_testcode+0x30>
 248:	636f62b7          	lui	t0,0x636f6
 24c:	46128293          	addi	t0,t0,1121 # 636f6461 <_end+0x636f53b1>
 250:	da581ae3          	bne	a6,t0,4 <fail_loop>
 254:	6a6572b7          	lui	t0,0x6a657
 258:	b4028293          	addi	t0,t0,-1216 # 6a656b40 <_end+0x6a655a90>
 25c:	da5894e3          	bne	a7,t0,4 <fail_loop>
 260:	202872b7          	lui	t0,0x20287
 264:	86128293          	addi	t0,t0,-1951 # 20286861 <_end+0x202857b1>
 268:	d8591ee3          	bne	s2,t0,4 <fail_loop>
 26c:	616a62b7          	lui	t0,0x616a6
 270:	56b28293          	addi	t0,t0,1387 # 616a656b <_end+0x616a54bb>
 274:	d85998e3          	bne	s3,t0,4 <fail_loop>
 278:	617662b7          	lui	t0,0x61766
 27c:	52028293          	addi	t0,t0,1312 # 61766520 <_end+0x61765470>
 280:	d85a12e3          	bne	s4,t0,4 <fail_loop>
 284:	2e2052b7          	lui	t0,0x2e205
 288:	c6528293          	addi	t0,t0,-923 # 2e204c65 <_end+0x2e203bb5>
 28c:	d65a9ce3          	bne	s5,t0,4 <fail_loop>
 290:	636f72b7          	lui	t0,0x636f7
 294:	d2928293          	addi	t0,t0,-727 # 636f6d29 <_end+0x636f5c79>
 298:	d65b16e3          	bne	s6,t0,4 <fail_loop>
 29c:	736972b7          	lui	t0,0x73697
 2a0:	02e28293          	addi	t0,t0,46 # 7369702e <_end+0x73695f7e>
 2a4:	d65b90e3          	bne	s7,t0,4 <fail_loop>
 2a8:	662082b7          	lui	t0,0x66208
 2ac:	96f28293          	addi	t0,t0,-1681 # 6620796f <_end+0x662068bf>
 2b0:	d45c1ae3          	bne	s8,t0,4 <fail_loop>
 2b4:	676522b7          	lui	t0,0x67652
 2b8:	06928293          	addi	t0,t0,105 # 67652069 <_end+0x67650fb9>
 2bc:	d45c94e3          	bne	s9,t0,4 <fail_loop>
 2c0:	657372b7          	lui	t0,0x65737
 2c4:	36128293          	addi	t0,t0,865 # 65737361 <_end+0x657362b1>
 2c8:	d25d1ee3          	bne	s10,t0,4 <fail_loop>
 2cc:	757322b7          	lui	t0,0x75732
 2d0:	06d28293          	addi	t0,t0,109 # 7573206d <_end+0x75730fbd>
 2d4:	d25d98e3          	bne	s11,t0,4 <fail_loop>
 2d8:	3a2912b7          	lui	t0,0x3a291
 2dc:	d0a28293          	addi	t0,t0,-758 # 3a290d0a <_end+0x3a28fc5a>
 2e0:	d25e12e3          	bne	t3,t0,4 <fail_loop>
 2e4:	686972b7          	lui	t0,0x68697
 2e8:	32028293          	addi	t0,t0,800 # 68697320 <_end+0x68696270>
 2ec:	d05e9ce3          	bne	t4,t0,4 <fail_loop>
 2f0:	616422b7          	lui	t0,0x61642
 2f4:	07428293          	addi	t0,t0,116 # 61642074 <_end+0x61640fc4>
 2f8:	d05f16e3          	bne	t5,t0,4 <fail_loop>
 2fc:	752072b7          	lui	t0,0x75207
 300:	26528293          	addi	t0,t0,613 # 75207265 <_end+0x752061b5>
 304:	d05f90e3          	bne	t6,t0,4 <fail_loop>
 308:	00001217          	auipc	tp,0x1
 30c:	d8820213          	addi	tp,tp,-632 # 1090 <test_A3_res>
 310:	00022023          	sw	zero,0(tp) # 0 <_start>
 314:	00122223          	sw	ra,4(tp) # 4 <fail_loop>
 318:	00222423          	sw	sp,8(tp) # 8 <reset_vector>
 31c:	00322623          	sw	gp,12(tp) # c <begin_testcode>
 320:	4e00006f          	j	800 <ok_loop>

00000324 <end_testcode>:
 324:	c0001073          	unimp
	...

Disassembly of section .tohost:

00000800 <ok_loop>:
 800:	0000006f          	j	800 <ok_loop>

Disassembly of section .data:

00001000 <begin_signature>:
    1000:	bbbbbbbb          	0xbbbbbbbb
    1004:	bbbbbbbb          	0xbbbbbbbb
    1008:	bbbbbbbb          	0xbbbbbbbb
    100c:	bbbbbbbb          	0xbbbbbbbb

00001010 <test_A1_res>:
    1010:	ffff                	0xffff
    1012:	ffff                	0xffff
    1014:	ffff                	0xffff
    1016:	ffff                	0xffff
    1018:	ffff                	0xffff
    101a:	ffff                	0xffff
    101c:	ffff                	0xffff
    101e:	ffff                	0xffff
    1020:	ffff                	0xffff
    1022:	ffff                	0xffff
    1024:	ffff                	0xffff
    1026:	ffff                	0xffff
    1028:	ffff                	0xffff
    102a:	ffff                	0xffff
    102c:	ffff                	0xffff
    102e:	ffff                	0xffff
    1030:	ffff                	0xffff
    1032:	ffff                	0xffff
    1034:	ffff                	0xffff
    1036:	ffff                	0xffff
    1038:	ffff                	0xffff
    103a:	ffff                	0xffff
    103c:	ffff                	0xffff
    103e:	ffff                	0xffff
    1040:	ffff                	0xffff
    1042:	ffff                	0xffff
    1044:	ffff                	0xffff
    1046:	ffff                	0xffff
    1048:	ffff                	0xffff
    104a:	ffff                	0xffff
    104c:	ffff                	0xffff
    104e:	ffff                	0xffff

00001050 <test_A2_res>:
    1050:	ffff                	0xffff
    1052:	ffff                	0xffff
    1054:	ffff                	0xffff
    1056:	ffff                	0xffff
    1058:	ffff                	0xffff
    105a:	ffff                	0xffff
    105c:	ffff                	0xffff
    105e:	ffff                	0xffff
    1060:	ffff                	0xffff
    1062:	ffff                	0xffff
    1064:	ffff                	0xffff
    1066:	ffff                	0xffff
    1068:	ffff                	0xffff
    106a:	ffff                	0xffff
    106c:	ffff                	0xffff
    106e:	ffff                	0xffff
    1070:	ffff                	0xffff
    1072:	ffff                	0xffff
    1074:	ffff                	0xffff
    1076:	ffff                	0xffff
    1078:	ffff                	0xffff
    107a:	ffff                	0xffff
    107c:	ffff                	0xffff
    107e:	ffff                	0xffff
    1080:	ffff                	0xffff
    1082:	ffff                	0xffff
    1084:	ffff                	0xffff
    1086:	ffff                	0xffff
    1088:	ffff                	0xffff
    108a:	ffff                	0xffff
    108c:	ffff                	0xffff
    108e:	ffff                	0xffff

00001090 <test_A3_res>:
    1090:	ffff                	0xffff
    1092:	ffff                	0xffff
    1094:	ffff                	0xffff
    1096:	ffff                	0xffff
    1098:	ffff                	0xffff
    109a:	ffff                	0xffff
    109c:	ffff                	0xffff
    109e:	ffff                	0xffff

000010a0 <end_signature>:
    10a0:	eeee                	fsw	fs11,92(sp)
    10a2:	eeee                	fsw	fs11,92(sp)
    10a4:	eeee                	fsw	fs11,92(sp)
    10a6:	eeee                	fsw	fs11,92(sp)
    10a8:	eeee                	fsw	fs11,92(sp)
    10aa:	eeee                	fsw	fs11,92(sp)
    10ac:	eeee                	fsw	fs11,92(sp)
    10ae:	eeee                	fsw	fs11,92(sp)
