
startfiles:     file format elf32-littleriscv


Disassembly of section .text.init:

00000000 <_start>:
   0:	0080006f          	j	8 <reset_vector>

00000004 <fail_loop>:
   4:	0000006f          	j	4 <fail_loop>

00000008 <reset_vector>:
   8:	00000193          	li	gp,0

0000000c <begin_testcode>:
   c:	00000293          	li	t0,0
  10:	fe501ae3          	bne	zero,t0,4 <fail_loop>
  14:	00001097          	auipc	ra,0x1
  18:	00c08093          	addi	ra,ra,12 # 1020 <test_A1_res>
  1c:	aaaacfb7          	lui	t6,0xaaaac
  20:	bbbf8f93          	addi	t6,t6,-1093 # aaaabbbb <_end+0xaaaaab4b>
  24:	01f0a023          	sw	t6,0(ra)
  28:	11f1f137          	lui	sp,0x11f1f
  2c:	22210113          	addi	sp,sp,546 # 11f1f222 <_end+0x11f1e1b2>
  30:	00208023          	sb	sp,0(ra)
  34:	11f1f2b7          	lui	t0,0x11f1f
  38:	22228293          	addi	t0,t0,546 # 11f1f222 <_end+0x11f1e1b2>
  3c:	fc5114e3          	bne	sp,t0,4 <fail_loop>
  40:	aaaac2b7          	lui	t0,0xaaaac
  44:	bbb28293          	addi	t0,t0,-1093 # aaaabbbb <_end+0xaaaaab4b>
  48:	fa5f9ee3          	bne	t6,t0,4 <fail_loop>
  4c:	00001297          	auipc	t0,0x1
  50:	fd928293          	addi	t0,t0,-39 # 1025 <test_A2_res+0x1>
  54:	fe02afa3          	sw	zero,-1(t0)
  58:	f3334cb7          	lui	s9,0xf3334
  5c:	4f4c8c93          	addi	s9,s9,1268 # f33344f4 <_end+0xf3333484>
  60:	ff928fa3          	sb	s9,-1(t0)
  64:	00000293          	li	t0,0
  68:	f8501ee3          	bne	zero,t0,4 <fail_loop>
  6c:	f33342b7          	lui	t0,0xf3334
  70:	4f428293          	addi	t0,t0,1268 # f33344f4 <_end+0xf3333484>
  74:	f85c98e3          	bne	s9,t0,4 <fail_loop>
  78:	00001417          	auipc	s0,0x1
  7c:	faf40413          	addi	s0,s0,-81 # 1027 <test_A2_res+0x3>
  80:	000420a3          	sw	zero,1(s0)
  84:	55f5ffb7          	lui	t6,0x55f5f
  88:	666f8f93          	addi	t6,t6,1638 # 55f5f666 <_end+0x55f5e5f6>
  8c:	01f400a3          	sb	t6,1(s0)
  90:	00000293          	li	t0,0
  94:	f65018e3          	bne	zero,t0,4 <fail_loop>
  98:	55f5f2b7          	lui	t0,0x55f5f
  9c:	66628293          	addi	t0,t0,1638 # 55f5f666 <_end+0x55f5e5f6>
  a0:	f65f92e3          	bne	t6,t0,4 <fail_loop>
  a4:	00001597          	auipc	a1,0x1
  a8:	78858593          	addi	a1,a1,1928 # 182c <_end+0x7bc>
  ac:	8005a023          	sw	zero,-2048(a1)
  b0:	f7779637          	lui	a2,0xf7779
  b4:	8f860613          	addi	a2,a2,-1800 # f77788f8 <_end+0xf7777888>
  b8:	80c58023          	sb	a2,-2048(a1)
  bc:	00000293          	li	t0,0
  c0:	f45012e3          	bne	zero,t0,4 <fail_loop>
  c4:	f77792b7          	lui	t0,0xf7779
  c8:	8f828293          	addi	t0,t0,-1800 # f77788f8 <_end+0xf7777888>
  cc:	f2561ce3          	bne	a2,t0,4 <fail_loop>
  d0:	00000717          	auipc	a4,0x0
  d4:	76170713          	addi	a4,a4,1889 # 831 <ok_loop+0x31>
  d8:	7e072fa3          	sw	zero,2047(a4)
  dc:	990917b7          	lui	a5,0x99091
  e0:	aaa78793          	addi	a5,a5,-1366 # 99090aaa <_end+0x9908fa3a>
  e4:	7ef70fa3          	sb	a5,2047(a4)
  e8:	00000293          	li	t0,0
  ec:	f0501ce3          	bne	zero,t0,4 <fail_loop>
  f0:	990912b7          	lui	t0,0x99091
  f4:	aaa28293          	addi	t0,t0,-1366 # 99090aaa <_end+0x9908fa3a>
  f8:	f05796e3          	bne	a5,t0,4 <fail_loop>
  fc:	00001897          	auipc	a7,0x1
 100:	f3c88893          	addi	a7,a7,-196 # 1038 <test_B_res>
 104:	11111937          	lui	s2,0x11111
 108:	10c90913          	addi	s2,s2,268 # 1111110c <_end+0x1111009c>
 10c:	222229b7          	lui	s3,0x22222
 110:	2cc98993          	addi	s3,s3,716 # 222222cc <_end+0x2222125c>
 114:	33333a37          	lui	s4,0x33333
 118:	3bba0a13          	addi	s4,s4,955 # 333333bb <_end+0x3333234b>
 11c:	44444ab7          	lui	s5,0x44444
 120:	40ba8a93          	addi	s5,s5,1035 # 4444440b <_end+0x4444339b>
 124:	55555b37          	lui	s6,0x55555
 128:	5eeb0b13          	addi	s6,s6,1518 # 555555ee <_end+0x5555457e>
 12c:	66666bb7          	lui	s7,0x66666
 130:	60eb8b93          	addi	s7,s7,1550 # 6666660e <_end+0x6666559e>
 134:	77777c37          	lui	s8,0x77777
 138:	70dc0c13          	addi	s8,s8,1805 # 7777770d <_end+0x7777669d>
 13c:	88889cb7          	lui	s9,0x88889
 140:	8ddc8c93          	addi	s9,s9,-1827 # 888888dd <_end+0x8888786d>
 144:	9999ad37          	lui	s10,0x9999a
 148:	9f0d0d13          	addi	s10,s10,-1552 # 999999f0 <_end+0x99998980>
 14c:	aaaabdb7          	lui	s11,0xaaaab
 150:	a00d8d93          	addi	s11,s11,-1536 # aaaaaa00 <_end+0xaaaa9990>
 154:	bbbbce37          	lui	t3,0xbbbbc
 158:	bffe0e13          	addi	t3,t3,-1025 # bbbbbbff <_end+0xbbbbab8f>
 15c:	ccccdeb7          	lui	t4,0xccccd
 160:	c0fe8e93          	addi	t4,t4,-1009 # cccccc0f <_end+0xccccbb9f>
 164:	ff288e23          	sb	s2,-4(a7)
 168:	ff388ea3          	sb	s3,-3(a7)
 16c:	ff488f23          	sb	s4,-2(a7)
 170:	ff588fa3          	sb	s5,-1(a7)
 174:	01688023          	sb	s6,0(a7)
 178:	017880a3          	sb	s7,1(a7)
 17c:	01888123          	sb	s8,2(a7)
 180:	019881a3          	sb	s9,3(a7)
 184:	01a88223          	sb	s10,4(a7)
 188:	01b882a3          	sb	s11,5(a7)
 18c:	01c88323          	sb	t3,6(a7)
 190:	01d883a3          	sb	t4,7(a7)
 194:	111112b7          	lui	t0,0x11111
 198:	10c28293          	addi	t0,t0,268 # 1111110c <_end+0x1111009c>
 19c:	e65914e3          	bne	s2,t0,4 <fail_loop>
 1a0:	222222b7          	lui	t0,0x22222
 1a4:	2cc28293          	addi	t0,t0,716 # 222222cc <_end+0x2222125c>
 1a8:	e4599ee3          	bne	s3,t0,4 <fail_loop>
 1ac:	333332b7          	lui	t0,0x33333
 1b0:	3bb28293          	addi	t0,t0,955 # 333333bb <_end+0x3333234b>
 1b4:	e45a18e3          	bne	s4,t0,4 <fail_loop>
 1b8:	444442b7          	lui	t0,0x44444
 1bc:	40b28293          	addi	t0,t0,1035 # 4444440b <_end+0x4444339b>
 1c0:	e45a92e3          	bne	s5,t0,4 <fail_loop>
 1c4:	555552b7          	lui	t0,0x55555
 1c8:	5ee28293          	addi	t0,t0,1518 # 555555ee <_end+0x5555457e>
 1cc:	e25b1ce3          	bne	s6,t0,4 <fail_loop>
 1d0:	666662b7          	lui	t0,0x66666
 1d4:	60e28293          	addi	t0,t0,1550 # 6666660e <_end+0x6666559e>
 1d8:	e25b96e3          	bne	s7,t0,4 <fail_loop>
 1dc:	777772b7          	lui	t0,0x77777
 1e0:	70d28293          	addi	t0,t0,1805 # 7777770d <_end+0x7777669d>
 1e4:	e25c10e3          	bne	s8,t0,4 <fail_loop>
 1e8:	888892b7          	lui	t0,0x88889
 1ec:	8dd28293          	addi	t0,t0,-1827 # 888888dd <_end+0x8888786d>
 1f0:	e05c9ae3          	bne	s9,t0,4 <fail_loop>
 1f4:	9999a2b7          	lui	t0,0x9999a
 1f8:	9f028293          	addi	t0,t0,-1552 # 999999f0 <_end+0x99998980>
 1fc:	e05d14e3          	bne	s10,t0,4 <fail_loop>
 200:	aaaab2b7          	lui	t0,0xaaaab
 204:	a0028293          	addi	t0,t0,-1536 # aaaaaa00 <_end+0xaaaa9990>
 208:	de5d9ee3          	bne	s11,t0,4 <fail_loop>
 20c:	bbbbc2b7          	lui	t0,0xbbbbc
 210:	bff28293          	addi	t0,t0,-1025 # bbbbbbff <_end+0xbbbbab8f>
 214:	de5e18e3          	bne	t3,t0,4 <fail_loop>
 218:	ccccd2b7          	lui	t0,0xccccd
 21c:	c0f28293          	addi	t0,t0,-1009 # cccccc0f <_end+0xccccbb9f>
 220:	de5e92e3          	bne	t4,t0,4 <fail_loop>
 224:	00001b17          	auipc	s6,0x1
 228:	e1cb0b13          	addi	s6,s6,-484 # 1040 <test_C_res>
 22c:	876540b7          	lui	ra,0x87654
 230:	32108093          	addi	ra,ra,801 # 87654321 <_end+0x876532b1>
 234:	001b2023          	sw	ra,0(s6)
 238:	12345037          	lui	zero,0x12345
 23c:	67800013          	li	zero,1656
 240:	000b0023          	sb	zero,0(s6)
 244:	00000293          	li	t0,0
 248:	da501ee3          	bne	zero,t0,4 <fail_loop>
 24c:	876542b7          	lui	t0,0x87654
 250:	32128293          	addi	t0,t0,801 # 87654321 <_end+0x876532b1>
 254:	da5098e3          	bne	ra,t0,4 <fail_loop>
 258:	00001a97          	auipc	s5,0x1
 25c:	da8a8a93          	addi	s5,s5,-600 # 1000 <test_D1_data>
 260:	000aa083          	lw	ra,0(s5)
 264:	0000a023          	sw	zero,0(ra)
 268:	112239b7          	lui	s3,0x11223
 26c:	34498993          	addi	s3,s3,836 # 11223344 <_end+0x112222d4>
 270:	000aab83          	lw	s7,0(s5)
 274:	013b8023          	sb	s3,0(s7)
 278:	112232b7          	lui	t0,0x11223
 27c:	34428293          	addi	t0,t0,836 # 11223344 <_end+0x112222d4>
 280:	d85992e3          	bne	s3,t0,4 <fail_loop>
 284:	00001b97          	auipc	s7,0x1
 288:	d80b8b93          	addi	s7,s7,-640 # 1004 <test_D2_data>
 28c:	00001c17          	auipc	s8,0x1
 290:	dbcc0c13          	addi	s8,s8,-580 # 1048 <test_D2_res>
 294:	000c2023          	sw	zero,0(s8)
 298:	000bac83          	lw	s9,0(s7)
 29c:	019c0023          	sb	s9,0(s8)
 2a0:	9abce2b7          	lui	t0,0x9abce
 2a4:	ef028293          	addi	t0,t0,-272 # 9abcdef0 <_end+0x9abcce80>
 2a8:	d45c9ee3          	bne	s9,t0,4 <fail_loop>
 2ac:	00001d17          	auipc	s10,0x1
 2b0:	da0d0d13          	addi	s10,s10,-608 # 104c <test_E1_res>
 2b4:	000d2023          	sw	zero,0(s10)
 2b8:	76543cb7          	lui	s9,0x76543
 2bc:	210c8c93          	addi	s9,s9,528 # 76543210 <_end+0x765421a0>
 2c0:	019d0023          	sb	s9,0(s10)
 2c4:	00000c93          	li	s9,0
 2c8:	00000293          	li	t0,0
 2cc:	d25c9ce3          	bne	s9,t0,4 <fail_loop>
 2d0:	00001e17          	auipc	t3,0x1
 2d4:	d80e0e13          	addi	t3,t3,-640 # 1050 <test_E2_res>
 2d8:	000e2023          	sw	zero,0(t3)
 2dc:	89abddb7          	lui	s11,0x89abd
 2e0:	defd8d93          	addi	s11,s11,-529 # 89abcdef <_end+0x89abbd7f>
 2e4:	01be0023          	sb	s11,0(t3)
 2e8:	ffce0e13          	addi	t3,t3,-4
 2ec:	89abd2b7          	lui	t0,0x89abd
 2f0:	def28293          	addi	t0,t0,-529 # 89abcdef <_end+0x89abbd7f>
 2f4:	d05d98e3          	bne	s11,t0,4 <fail_loop>
 2f8:	800042b7          	lui	t0,0x80004
 2fc:	03c28293          	addi	t0,t0,60 # 8000403c <_end+0x80002fcc>
 300:	d05e12e3          	bne	t3,t0,4 <fail_loop>
 304:	00001e97          	auipc	t4,0x1
 308:	d50e8e93          	addi	t4,t4,-688 # 1054 <test_F_res>
 30c:	000ea023          	sw	zero,0(t4)
 310:	000ea223          	sw	zero,4(t4)
 314:	14726db7          	lui	s11,0x14726
 318:	836d8d93          	addi	s11,s11,-1994 # 14725836 <_end+0x147247c6>
 31c:	01be8023          	sb	s11,0(t4)
 320:	000eaf03          	lw	t5,0(t4)
 324:	01ee8223          	sb	t5,4(t4)
 328:	147262b7          	lui	t0,0x14726
 32c:	83628293          	addi	t0,t0,-1994 # 14725836 <_end+0x147247c6>
 330:	cc5d9ae3          	bne	s11,t0,4 <fail_loop>
 334:	03600293          	li	t0,54
 338:	cc5f16e3          	bne	t5,t0,4 <fail_loop>
 33c:	00001097          	auipc	ra,0x1
 340:	d2008093          	addi	ra,ra,-736 # 105c <test_G_res>
 344:	0000a023          	sw	zero,0(ra)
 348:	96385137          	lui	sp,0x96385
 34c:	20110113          	addi	sp,sp,513 # 96385201 <_end+0x96384191>
 350:	258151b7          	lui	gp,0x25815
 354:	96318193          	addi	gp,gp,-1693 # 25814963 <_end+0x258138f3>
 358:	00208023          	sb	sp,0(ra)
 35c:	00308023          	sb	gp,0(ra)
 360:	963852b7          	lui	t0,0x96385
 364:	20128293          	addi	t0,t0,513 # 96385201 <_end+0x96384191>
 368:	c8511ee3          	bne	sp,t0,4 <fail_loop>
 36c:	258152b7          	lui	t0,0x25815
 370:	96328293          	addi	t0,t0,-1693 # 25814963 <_end+0x258138f3>
 374:	c85198e3          	bne	gp,t0,4 <fail_loop>
 378:	4880006f          	j	800 <ok_loop>

0000037c <end_testcode>:
 37c:	c0001073          	unimp
 380:	0000                	unimp
	...

Disassembly of section .tohost:

00000800 <ok_loop>:
 800:	0000006f          	j	800 <ok_loop>

Disassembly of section .data:

00001000 <test_D1_data>:
    1000:	1044                	addi	s1,sp,36
	...

00001004 <test_D2_data>:
    1004:	def0                	sw	a2,124(a3)
    1006:	9abc                	0x9abc
	...

00001010 <begin_signature>:
    1010:	bbbbbbbb          	0xbbbbbbbb
    1014:	bbbbbbbb          	0xbbbbbbbb
    1018:	bbbbbbbb          	0xbbbbbbbb
    101c:	bbbbbbbb          	0xbbbbbbbb

00001020 <test_A1_res>:
    1020:	ffff                	0xffff
    1022:	ffff                	0xffff

00001024 <test_A2_res>:
    1024:	ffff                	0xffff
    1026:	ffff                	0xffff

00001028 <test_A3_res>:
    1028:	ffff                	0xffff
    102a:	ffff                	0xffff

0000102c <test_A4_res>:
    102c:	ffff                	0xffff
    102e:	ffff                	0xffff

00001030 <test_A5_res>:
    1030:	ffff                	0xffff
    1032:	ffff                	0xffff
    1034:	ffff                	0xffff
    1036:	ffff                	0xffff

00001038 <test_B_res>:
    1038:	ffff                	0xffff
    103a:	ffff                	0xffff
    103c:	ffff                	0xffff
    103e:	ffff                	0xffff

00001040 <test_C_res>:
    1040:	ffff                	0xffff
    1042:	ffff                	0xffff

00001044 <test_D1_res>:
    1044:	ffff                	0xffff
    1046:	ffff                	0xffff

00001048 <test_D2_res>:
    1048:	ffff                	0xffff
    104a:	ffff                	0xffff

0000104c <test_E1_res>:
    104c:	ffff                	0xffff
    104e:	ffff                	0xffff

00001050 <test_E2_res>:
    1050:	ffff                	0xffff
    1052:	ffff                	0xffff

00001054 <test_F_res>:
    1054:	ffff                	0xffff
    1056:	ffff                	0xffff
    1058:	ffff                	0xffff
    105a:	ffff                	0xffff

0000105c <test_G_res>:
    105c:	ffff                	0xffff
    105e:	ffff                	0xffff

00001060 <end_signature>:
    1060:	eeee                	fsw	fs11,92(sp)
    1062:	eeee                	fsw	fs11,92(sp)
    1064:	eeee                	fsw	fs11,92(sp)
    1066:	eeee                	fsw	fs11,92(sp)
    1068:	eeee                	fsw	fs11,92(sp)
    106a:	eeee                	fsw	fs11,92(sp)
    106c:	eeee                	fsw	fs11,92(sp)
    106e:	eeee                	fsw	fs11,92(sp)
