
startfiles:     file format elf32-littleriscv


Disassembly of section .text.init:

00000000 <_start>:
   0:	0080006f          	j	8 <reset_vector>

00000004 <fail_loop>:
   4:	0000006f          	j	4 <fail_loop>

00000008 <reset_vector>:
   8:	00000193          	li	gp,0

0000000c <begin_testcode>:
   c:	00000293          	li	t0,0
  10:	fe501ae3          	bne	zero,t0,4 <fail_loop>
  14:	00001097          	auipc	ra,0x1
  18:	fec08093          	addi	ra,ra,-20 # 1000 <test_A1_data>
  1c:	00001117          	auipc	sp,0x1
  20:	01410113          	addi	sp,sp,20 # 1030 <test_A1_res>
  24:	0000a183          	lw	gp,0(ra)
  28:	00100213          	li	tp,1
  2c:	800002b7          	lui	t0,0x80000
  30:	fff28293          	addi	t0,t0,-1 # 7fffffff <_end+0x7fffeeff>
  34:	fff00313          	li	t1,-1
  38:	00000393          	li	t2,0
  3c:	80000437          	lui	s0,0x80000
  40:	0041b233          	sltu	tp,gp,tp
  44:	0051b2b3          	sltu	t0,gp,t0
  48:	0061b333          	sltu	t1,gp,t1
  4c:	0071b3b3          	sltu	t2,gp,t2
  50:	0081b433          	sltu	s0,gp,s0
  54:	00312023          	sw	gp,0(sp)
  58:	00412223          	sw	tp,4(sp)
  5c:	00512423          	sw	t0,8(sp)
  60:	00612623          	sw	t1,12(sp)
  64:	00712823          	sw	t2,16(sp)
  68:	00812a23          	sw	s0,20(sp)
  6c:	00000293          	li	t0,0
  70:	f8519ae3          	bne	gp,t0,4 <fail_loop>
  74:	00100293          	li	t0,1
  78:	f85216e3          	bne	tp,t0,4 <fail_loop>
  7c:	00000293          	li	t0,0
  80:	f85292e3          	bne	t0,t0,4 <fail_loop>
  84:	00100293          	li	t0,1
  88:	f6531ee3          	bne	t1,t0,4 <fail_loop>
  8c:	00000293          	li	t0,0
  90:	f6539ae3          	bne	t2,t0,4 <fail_loop>
  94:	00100293          	li	t0,1
  98:	f65416e3          	bne	s0,t0,4 <fail_loop>
  9c:	00001097          	auipc	ra,0x1
  a0:	f6808093          	addi	ra,ra,-152 # 1004 <test_A2_data>
  a4:	00001117          	auipc	sp,0x1
  a8:	fa410113          	addi	sp,sp,-92 # 1048 <test_A2_res>
  ac:	0000a403          	lw	s0,0(ra)
  b0:	00100493          	li	s1,1
  b4:	80000537          	lui	a0,0x80000
  b8:	fff50513          	addi	a0,a0,-1 # 7fffffff <_end+0x7fffeeff>
  bc:	fff00593          	li	a1,-1
  c0:	00000613          	li	a2,0
  c4:	800006b7          	lui	a3,0x80000
  c8:	009434b3          	sltu	s1,s0,s1
  cc:	00a43533          	sltu	a0,s0,a0
  d0:	00b435b3          	sltu	a1,s0,a1
  d4:	00c43633          	sltu	a2,s0,a2
  d8:	00d436b3          	sltu	a3,s0,a3
  dc:	00812023          	sw	s0,0(sp)
  e0:	00912223          	sw	s1,4(sp)
  e4:	00a12423          	sw	a0,8(sp)
  e8:	00b12623          	sw	a1,12(sp)
  ec:	00c12823          	sw	a2,16(sp)
  f0:	00d12a23          	sw	a3,20(sp)
  f4:	00100293          	li	t0,1
  f8:	f05416e3          	bne	s0,t0,4 <fail_loop>
  fc:	00000293          	li	t0,0
 100:	f05492e3          	bne	s1,t0,4 <fail_loop>
 104:	00100293          	li	t0,1
 108:	ee559ee3          	bne	a1,t0,4 <fail_loop>
 10c:	00000293          	li	t0,0
 110:	ee561ae3          	bne	a2,t0,4 <fail_loop>
 114:	00100293          	li	t0,1
 118:	ee5696e3          	bne	a3,t0,4 <fail_loop>
 11c:	00001097          	auipc	ra,0x1
 120:	eec08093          	addi	ra,ra,-276 # 1008 <test_A3_data>
 124:	00001117          	auipc	sp,0x1
 128:	f3c10113          	addi	sp,sp,-196 # 1060 <test_A3_res>
 12c:	0000a683          	lw	a3,0(ra)
 130:	00100713          	li	a4,1
 134:	800007b7          	lui	a5,0x80000
 138:	fff78793          	addi	a5,a5,-1 # 7fffffff <_end+0x7fffeeff>
 13c:	fff00813          	li	a6,-1
 140:	00000893          	li	a7,0
 144:	80000937          	lui	s2,0x80000
 148:	00e6b733          	sltu	a4,a3,a4
 14c:	00f6b7b3          	sltu	a5,a3,a5
 150:	0106b833          	sltu	a6,a3,a6
 154:	0116b8b3          	sltu	a7,a3,a7
 158:	0126b933          	sltu	s2,a3,s2
 15c:	00d12023          	sw	a3,0(sp)
 160:	00e12223          	sw	a4,4(sp)
 164:	00f12423          	sw	a5,8(sp)
 168:	01012623          	sw	a6,12(sp)
 16c:	01112823          	sw	a7,16(sp)
 170:	01212a23          	sw	s2,20(sp)
 174:	fff00293          	li	t0,-1
 178:	e85696e3          	bne	a3,t0,4 <fail_loop>
 17c:	00000293          	li	t0,0
 180:	e85712e3          	bne	a4,t0,4 <fail_loop>
 184:	00000293          	li	t0,0
 188:	e6579ee3          	bne	a5,t0,4 <fail_loop>
 18c:	00000293          	li	t0,0
 190:	e6581ae3          	bne	a6,t0,4 <fail_loop>
 194:	00000293          	li	t0,0
 198:	e65896e3          	bne	a7,t0,4 <fail_loop>
 19c:	00000293          	li	t0,0
 1a0:	e65912e3          	bne	s2,t0,4 <fail_loop>
 1a4:	00001097          	auipc	ra,0x1
 1a8:	e6808093          	addi	ra,ra,-408 # 100c <test_A4_data>
 1ac:	00001117          	auipc	sp,0x1
 1b0:	ecc10113          	addi	sp,sp,-308 # 1078 <test_A4_res>
 1b4:	0000a903          	lw	s2,0(ra)
 1b8:	00100993          	li	s3,1
 1bc:	80000a37          	lui	s4,0x80000
 1c0:	fffa0a13          	addi	s4,s4,-1 # 7fffffff <_end+0x7fffeeff>
 1c4:	fff00a93          	li	s5,-1
 1c8:	00000b13          	li	s6,0
 1cc:	80000bb7          	lui	s7,0x80000
 1d0:	013939b3          	sltu	s3,s2,s3
 1d4:	01493a33          	sltu	s4,s2,s4
 1d8:	01593ab3          	sltu	s5,s2,s5
 1dc:	01693b33          	sltu	s6,s2,s6
 1e0:	01793bb3          	sltu	s7,s2,s7
 1e4:	01212023          	sw	s2,0(sp)
 1e8:	01312223          	sw	s3,4(sp)
 1ec:	01412423          	sw	s4,8(sp)
 1f0:	01512623          	sw	s5,12(sp)
 1f4:	01612823          	sw	s6,16(sp)
 1f8:	01712a23          	sw	s7,20(sp)
 1fc:	800002b7          	lui	t0,0x80000
 200:	fff28293          	addi	t0,t0,-1 # 7fffffff <_end+0x7fffeeff>
 204:	e05910e3          	bne	s2,t0,4 <fail_loop>
 208:	00000293          	li	t0,0
 20c:	de599ce3          	bne	s3,t0,4 <fail_loop>
 210:	00000293          	li	t0,0
 214:	de5a18e3          	bne	s4,t0,4 <fail_loop>
 218:	00100293          	li	t0,1
 21c:	de5a94e3          	bne	s5,t0,4 <fail_loop>
 220:	00000293          	li	t0,0
 224:	de5b10e3          	bne	s6,t0,4 <fail_loop>
 228:	00100293          	li	t0,1
 22c:	dc5b9ce3          	bne	s7,t0,4 <fail_loop>
 230:	00001097          	auipc	ra,0x1
 234:	de008093          	addi	ra,ra,-544 # 1010 <test_A5_data>
 238:	00001117          	auipc	sp,0x1
 23c:	e5810113          	addi	sp,sp,-424 # 1090 <test_A5_res>
 240:	0000ab83          	lw	s7,0(ra)
 244:	00100c13          	li	s8,1
 248:	80000cb7          	lui	s9,0x80000
 24c:	fffc8c93          	addi	s9,s9,-1 # 7fffffff <_end+0x7fffeeff>
 250:	fff00d13          	li	s10,-1
 254:	00000d93          	li	s11,0
 258:	80000e37          	lui	t3,0x80000
 25c:	018bbc33          	sltu	s8,s7,s8
 260:	019bbcb3          	sltu	s9,s7,s9
 264:	01abbd33          	sltu	s10,s7,s10
 268:	01bbbdb3          	sltu	s11,s7,s11
 26c:	01cbbe33          	sltu	t3,s7,t3
 270:	01712023          	sw	s7,0(sp)
 274:	01812223          	sw	s8,4(sp)
 278:	01912423          	sw	s9,8(sp)
 27c:	01a12623          	sw	s10,12(sp)
 280:	01b12823          	sw	s11,16(sp)
 284:	01c12a23          	sw	t3,20(sp)
 288:	800002b7          	lui	t0,0x80000
 28c:	d65b9ce3          	bne	s7,t0,4 <fail_loop>
 290:	00000293          	li	t0,0
 294:	d65c18e3          	bne	s8,t0,4 <fail_loop>
 298:	00000293          	li	t0,0
 29c:	d65c94e3          	bne	s9,t0,4 <fail_loop>
 2a0:	00100293          	li	t0,1
 2a4:	d65d10e3          	bne	s10,t0,4 <fail_loop>
 2a8:	00000293          	li	t0,0
 2ac:	d45d9ce3          	bne	s11,t0,4 <fail_loop>
 2b0:	00000293          	li	t0,0
 2b4:	d45e18e3          	bne	t3,t0,4 <fail_loop>
 2b8:	00001d17          	auipc	s10,0x1
 2bc:	d5cd0d13          	addi	s10,s10,-676 # 1014 <test_B_data>
 2c0:	00001d97          	auipc	s11,0x1
 2c4:	de8d8d93          	addi	s11,s11,-536 # 10a8 <test_B_res>
 2c8:	000d2083          	lw	ra,0(s10)
 2cc:	fff00113          	li	sp,-1
 2d0:	0020b033          	sltu	zero,ra,sp
 2d4:	000da023          	sw	zero,0(s11)
 2d8:	001da223          	sw	ra,4(s11)
 2dc:	002da423          	sw	sp,8(s11)
 2e0:	00000293          	li	t0,0
 2e4:	d25010e3          	bne	zero,t0,4 <fail_loop>
 2e8:	fff00293          	li	t0,-1
 2ec:	d0511ce3          	bne	sp,t0,4 <fail_loop>
 2f0:	00001f97          	auipc	t6,0x1
 2f4:	dc4f8f93          	addi	t6,t6,-572 # 10b4 <test_C_res>
 2f8:	00100093          	li	ra,1
 2fc:	7ff00113          	li	sp,2047
 300:	fff00193          	li	gp,-1
 304:	00000213          	li	tp,0
 308:	80000293          	li	t0,-2048
 30c:	00103333          	snez	t1,ra
 310:	002033b3          	snez	t2,sp
 314:	00303433          	snez	s0,gp
 318:	004034b3          	snez	s1,tp
 31c:	00503533          	snez	a0,t0
 320:	0000b5b3          	sltu	a1,ra,zero
 324:	00013633          	sltu	a2,sp,zero
 328:	0001b6b3          	sltu	a3,gp,zero
 32c:	00023733          	sltu	a4,tp,zero
 330:	0002b7b3          	sltu	a5,t0,zero
 334:	006fa023          	sw	t1,0(t6)
 338:	007fa223          	sw	t2,4(t6)
 33c:	008fa423          	sw	s0,8(t6)
 340:	009fa623          	sw	s1,12(t6)
 344:	00afa823          	sw	a0,16(t6)
 348:	00bfaa23          	sw	a1,20(t6)
 34c:	00cfac23          	sw	a2,24(t6)
 350:	00dfae23          	sw	a3,28(t6)
 354:	02efa023          	sw	a4,32(t6)
 358:	02ffa223          	sw	a5,36(t6)
 35c:	00100293          	li	t0,1
 360:	ca5312e3          	bne	t1,t0,4 <fail_loop>
 364:	00100293          	li	t0,1
 368:	c8539ee3          	bne	t2,t0,4 <fail_loop>
 36c:	00100293          	li	t0,1
 370:	c8541ae3          	bne	s0,t0,4 <fail_loop>
 374:	00000293          	li	t0,0
 378:	c85496e3          	bne	s1,t0,4 <fail_loop>
 37c:	00000293          	li	t0,0
 380:	c85592e3          	bne	a1,t0,4 <fail_loop>
 384:	00000293          	li	t0,0
 388:	c6561ee3          	bne	a2,t0,4 <fail_loop>
 38c:	00000293          	li	t0,0
 390:	c6569ae3          	bne	a3,t0,4 <fail_loop>
 394:	00000293          	li	t0,0
 398:	c65716e3          	bne	a4,t0,4 <fail_loop>
 39c:	00000293          	li	t0,0
 3a0:	c65792e3          	bne	a5,t0,4 <fail_loop>
 3a4:	00001f97          	auipc	t6,0x1
 3a8:	d38f8f93          	addi	t6,t6,-712 # 10dc <test_D_res>
 3ac:	00100193          	li	gp,1
 3b0:	003030b3          	snez	ra,gp
 3b4:	0030b133          	sltu	sp,ra,gp
 3b8:	00313e33          	sltu	t3,sp,gp
 3bc:	003e3eb3          	sltu	t4,t3,gp
 3c0:	003ebf33          	sltu	t5,t4,gp
 3c4:	001fa023          	sw	ra,0(t6)
 3c8:	002fa223          	sw	sp,4(t6)
 3cc:	01cfa423          	sw	t3,8(t6)
 3d0:	01dfa623          	sw	t4,12(t6)
 3d4:	01efa823          	sw	t5,16(t6)
 3d8:	00000293          	li	t0,0
 3dc:	c25114e3          	bne	sp,t0,4 <fail_loop>
 3e0:	00100293          	li	t0,1
 3e4:	c25e10e3          	bne	t3,t0,4 <fail_loop>
 3e8:	00000293          	li	t0,0
 3ec:	c05e9ce3          	bne	t4,t0,4 <fail_loop>
 3f0:	00100293          	li	t0,1
 3f4:	c05f18e3          	bne	t5,t0,4 <fail_loop>
 3f8:	4080006f          	j	800 <ok_loop>

000003fc <end_testcode>:
 3fc:	c0001073          	unimp
 400:	0000                	unimp
	...

Disassembly of section .tohost:

00000800 <ok_loop>:
 800:	0000006f          	j	800 <ok_loop>

Disassembly of section .data:

00001000 <test_A1_data>:
    1000:	0000                	unimp
	...

00001004 <test_A2_data>:
    1004:	0001                	nop
	...

00001008 <test_A3_data>:
    1008:	ffff                	0xffff
    100a:	ffff                	0xffff

0000100c <test_A4_data>:
    100c:	ffff                	0xffff
    100e:	7fff                	0x7fff

00001010 <test_A5_data>:
    1010:	0000                	unimp
    1012:	8000                	0x8000

00001014 <test_B_data>:
    1014:	0001                	nop
	...

00001020 <begin_signature>:
    1020:	bbbbbbbb          	0xbbbbbbbb
    1024:	bbbbbbbb          	0xbbbbbbbb
    1028:	bbbbbbbb          	0xbbbbbbbb
    102c:	bbbbbbbb          	0xbbbbbbbb

00001030 <test_A1_res>:
    1030:	ffff                	0xffff
    1032:	ffff                	0xffff
    1034:	ffff                	0xffff
    1036:	ffff                	0xffff
    1038:	ffff                	0xffff
    103a:	ffff                	0xffff
    103c:	ffff                	0xffff
    103e:	ffff                	0xffff
    1040:	ffff                	0xffff
    1042:	ffff                	0xffff
    1044:	ffff                	0xffff
    1046:	ffff                	0xffff

00001048 <test_A2_res>:
    1048:	ffff                	0xffff
    104a:	ffff                	0xffff
    104c:	ffff                	0xffff
    104e:	ffff                	0xffff
    1050:	ffff                	0xffff
    1052:	ffff                	0xffff
    1054:	ffff                	0xffff
    1056:	ffff                	0xffff
    1058:	ffff                	0xffff
    105a:	ffff                	0xffff
    105c:	ffff                	0xffff
    105e:	ffff                	0xffff

00001060 <test_A3_res>:
    1060:	ffff                	0xffff
    1062:	ffff                	0xffff
    1064:	ffff                	0xffff
    1066:	ffff                	0xffff
    1068:	ffff                	0xffff
    106a:	ffff                	0xffff
    106c:	ffff                	0xffff
    106e:	ffff                	0xffff
    1070:	ffff                	0xffff
    1072:	ffff                	0xffff
    1074:	ffff                	0xffff
    1076:	ffff                	0xffff

00001078 <test_A4_res>:
    1078:	ffff                	0xffff
    107a:	ffff                	0xffff
    107c:	ffff                	0xffff
    107e:	ffff                	0xffff
    1080:	ffff                	0xffff
    1082:	ffff                	0xffff
    1084:	ffff                	0xffff
    1086:	ffff                	0xffff
    1088:	ffff                	0xffff
    108a:	ffff                	0xffff
    108c:	ffff                	0xffff
    108e:	ffff                	0xffff

00001090 <test_A5_res>:
    1090:	ffff                	0xffff
    1092:	ffff                	0xffff
    1094:	ffff                	0xffff
    1096:	ffff                	0xffff
    1098:	ffff                	0xffff
    109a:	ffff                	0xffff
    109c:	ffff                	0xffff
    109e:	ffff                	0xffff
    10a0:	ffff                	0xffff
    10a2:	ffff                	0xffff
    10a4:	ffff                	0xffff
    10a6:	ffff                	0xffff

000010a8 <test_B_res>:
    10a8:	ffff                	0xffff
    10aa:	ffff                	0xffff
    10ac:	ffff                	0xffff
    10ae:	ffff                	0xffff
    10b0:	ffff                	0xffff
    10b2:	ffff                	0xffff

000010b4 <test_C_res>:
    10b4:	ffff                	0xffff
    10b6:	ffff                	0xffff
    10b8:	ffff                	0xffff
    10ba:	ffff                	0xffff
    10bc:	ffff                	0xffff
    10be:	ffff                	0xffff
    10c0:	ffff                	0xffff
    10c2:	ffff                	0xffff
    10c4:	ffff                	0xffff
    10c6:	ffff                	0xffff
    10c8:	ffff                	0xffff
    10ca:	ffff                	0xffff
    10cc:	ffff                	0xffff
    10ce:	ffff                	0xffff
    10d0:	ffff                	0xffff
    10d2:	ffff                	0xffff
    10d4:	ffff                	0xffff
    10d6:	ffff                	0xffff
    10d8:	ffff                	0xffff
    10da:	ffff                	0xffff

000010dc <test_D_res>:
    10dc:	ffff                	0xffff
    10de:	ffff                	0xffff
    10e0:	ffff                	0xffff
    10e2:	ffff                	0xffff
    10e4:	ffff                	0xffff
    10e6:	ffff                	0xffff
    10e8:	ffff                	0xffff
    10ea:	ffff                	0xffff
    10ec:	ffff                	0xffff
    10ee:	ffff                	0xffff

000010f0 <end_signature>:
    10f0:	eeee                	fsw	fs11,92(sp)
    10f2:	eeee                	fsw	fs11,92(sp)
    10f4:	eeee                	fsw	fs11,92(sp)
    10f6:	eeee                	fsw	fs11,92(sp)
    10f8:	eeee                	fsw	fs11,92(sp)
    10fa:	eeee                	fsw	fs11,92(sp)
    10fc:	eeee                	fsw	fs11,92(sp)
    10fe:	eeee                	fsw	fs11,92(sp)
