
startfiles:     file format elf32-littleriscv


Disassembly of section .text.init:

00000000 <_start>:
   0:	0080006f          	j	8 <reset_vector>

00000004 <fail_loop>:
   4:	0000006f          	j	4 <fail_loop>

00000008 <reset_vector>:
   8:	00000193          	li	gp,0

0000000c <begin_testcode>:
   c:	00000293          	li	t0,0
  10:	fe501ae3          	bne	zero,t0,4 <fail_loop>
  14:	00001097          	auipc	ra,0x1
  18:	fec08093          	addi	ra,ra,-20 # 1000 <test_A1_data>
  1c:	00001117          	auipc	sp,0x1
  20:	01410113          	addi	sp,sp,20 # 1030 <test_A1_res>
  24:	0000a183          	lw	gp,0(ra)
  28:	0011d213          	srli	tp,gp,0x1
  2c:	00f1d293          	srli	t0,gp,0xf
  30:	01f1d313          	srli	t1,gp,0x1f
  34:	0001d393          	srli	t2,gp,0x0
  38:	0101d413          	srli	s0,gp,0x10
  3c:	00312023          	sw	gp,0(sp)
  40:	00412223          	sw	tp,4(sp)
  44:	00512423          	sw	t0,8(sp)
  48:	00612623          	sw	t1,12(sp)
  4c:	00712823          	sw	t2,16(sp)
  50:	00812a23          	sw	s0,20(sp)
  54:	00000293          	li	t0,0
  58:	fa5196e3          	bne	gp,t0,4 <fail_loop>
  5c:	00000293          	li	t0,0
  60:	fa5212e3          	bne	tp,t0,4 <fail_loop>
  64:	00000293          	li	t0,0
  68:	f8529ee3          	bne	t0,t0,4 <fail_loop>
  6c:	00000293          	li	t0,0
  70:	f8531ae3          	bne	t1,t0,4 <fail_loop>
  74:	00000293          	li	t0,0
  78:	f85396e3          	bne	t2,t0,4 <fail_loop>
  7c:	00000293          	li	t0,0
  80:	f85412e3          	bne	s0,t0,4 <fail_loop>
  84:	00001097          	auipc	ra,0x1
  88:	f8008093          	addi	ra,ra,-128 # 1004 <test_A2_data>
  8c:	00001117          	auipc	sp,0x1
  90:	fbc10113          	addi	sp,sp,-68 # 1048 <test_A2_res>
  94:	0000a403          	lw	s0,0(ra)
  98:	00145493          	srli	s1,s0,0x1
  9c:	00f45513          	srli	a0,s0,0xf
  a0:	01f45593          	srli	a1,s0,0x1f
  a4:	00045613          	srli	a2,s0,0x0
  a8:	01045693          	srli	a3,s0,0x10
  ac:	00812023          	sw	s0,0(sp)
  b0:	00912223          	sw	s1,4(sp)
  b4:	00a12423          	sw	a0,8(sp)
  b8:	00b12623          	sw	a1,12(sp)
  bc:	00c12823          	sw	a2,16(sp)
  c0:	00d12a23          	sw	a3,20(sp)
  c4:	00100293          	li	t0,1
  c8:	f2541ee3          	bne	s0,t0,4 <fail_loop>
  cc:	00000293          	li	t0,0
  d0:	f2549ae3          	bne	s1,t0,4 <fail_loop>
  d4:	00000293          	li	t0,0
  d8:	f25516e3          	bne	a0,t0,4 <fail_loop>
  dc:	00000293          	li	t0,0
  e0:	f25592e3          	bne	a1,t0,4 <fail_loop>
  e4:	00100293          	li	t0,1
  e8:	f0561ee3          	bne	a2,t0,4 <fail_loop>
  ec:	00000293          	li	t0,0
  f0:	f0569ae3          	bne	a3,t0,4 <fail_loop>
  f4:	00001097          	auipc	ra,0x1
  f8:	f1408093          	addi	ra,ra,-236 # 1008 <test_A3_data>
  fc:	00001117          	auipc	sp,0x1
 100:	f6410113          	addi	sp,sp,-156 # 1060 <test_A3_res>
 104:	0000a683          	lw	a3,0(ra)
 108:	0016d713          	srli	a4,a3,0x1
 10c:	00f6d793          	srli	a5,a3,0xf
 110:	01f6d813          	srli	a6,a3,0x1f
 114:	0006d893          	srli	a7,a3,0x0
 118:	0106d913          	srli	s2,a3,0x10
 11c:	00d12023          	sw	a3,0(sp)
 120:	00e12223          	sw	a4,4(sp)
 124:	00f12423          	sw	a5,8(sp)
 128:	01012623          	sw	a6,12(sp)
 12c:	01112823          	sw	a7,16(sp)
 130:	01212a23          	sw	s2,20(sp)
 134:	fff00293          	li	t0,-1
 138:	ec5696e3          	bne	a3,t0,4 <fail_loop>
 13c:	800002b7          	lui	t0,0x80000
 140:	fff28293          	addi	t0,t0,-1 # 7fffffff <_end+0x7fffef1f>
 144:	ec5710e3          	bne	a4,t0,4 <fail_loop>
 148:	000202b7          	lui	t0,0x20
 14c:	fff28293          	addi	t0,t0,-1 # 1ffff <_end+0x1ef1f>
 150:	ea579ae3          	bne	a5,t0,4 <fail_loop>
 154:	00100293          	li	t0,1
 158:	ea5816e3          	bne	a6,t0,4 <fail_loop>
 15c:	fff00293          	li	t0,-1
 160:	ea5892e3          	bne	a7,t0,4 <fail_loop>
 164:	000102b7          	lui	t0,0x10
 168:	fff28293          	addi	t0,t0,-1 # ffff <_end+0xef1f>
 16c:	e8591ce3          	bne	s2,t0,4 <fail_loop>
 170:	00001617          	auipc	a2,0x1
 174:	e9c60613          	addi	a2,a2,-356 # 100c <test_A4_data>
 178:	00001697          	auipc	a3,0x1
 17c:	f0068693          	addi	a3,a3,-256 # 1078 <test_A4_res>
 180:	00062903          	lw	s2,0(a2)
 184:	00195993          	srli	s3,s2,0x1
 188:	00f95a13          	srli	s4,s2,0xf
 18c:	01f95a93          	srli	s5,s2,0x1f
 190:	00095b13          	srli	s6,s2,0x0
 194:	01095b93          	srli	s7,s2,0x10
 198:	0126a023          	sw	s2,0(a3)
 19c:	0136a223          	sw	s3,4(a3)
 1a0:	0146a423          	sw	s4,8(a3)
 1a4:	0156a623          	sw	s5,12(a3)
 1a8:	0166a823          	sw	s6,16(a3)
 1ac:	0176aa23          	sw	s7,20(a3)
 1b0:	800002b7          	lui	t0,0x80000
 1b4:	fff28293          	addi	t0,t0,-1 # 7fffffff <_end+0x7fffef1f>
 1b8:	e45916e3          	bne	s2,t0,4 <fail_loop>
 1bc:	400002b7          	lui	t0,0x40000
 1c0:	fff28293          	addi	t0,t0,-1 # 3fffffff <_end+0x3fffef1f>
 1c4:	e45990e3          	bne	s3,t0,4 <fail_loop>
 1c8:	000102b7          	lui	t0,0x10
 1cc:	fff28293          	addi	t0,t0,-1 # ffff <_end+0xef1f>
 1d0:	e25a1ae3          	bne	s4,t0,4 <fail_loop>
 1d4:	00000293          	li	t0,0
 1d8:	e25a96e3          	bne	s5,t0,4 <fail_loop>
 1dc:	800002b7          	lui	t0,0x80000
 1e0:	fff28293          	addi	t0,t0,-1 # 7fffffff <_end+0x7fffef1f>
 1e4:	e25b10e3          	bne	s6,t0,4 <fail_loop>
 1e8:	000082b7          	lui	t0,0x8
 1ec:	fff28293          	addi	t0,t0,-1 # 7fff <_end+0x6f1f>
 1f0:	e05b9ae3          	bne	s7,t0,4 <fail_loop>
 1f4:	00001617          	auipc	a2,0x1
 1f8:	e1c60613          	addi	a2,a2,-484 # 1010 <test_A5_data>
 1fc:	00001697          	auipc	a3,0x1
 200:	e9468693          	addi	a3,a3,-364 # 1090 <test_A5_res>
 204:	00062b83          	lw	s7,0(a2)
 208:	001bdc13          	srli	s8,s7,0x1
 20c:	00fbdc93          	srli	s9,s7,0xf
 210:	01fbdd13          	srli	s10,s7,0x1f
 214:	000bdd93          	srli	s11,s7,0x0
 218:	010bde13          	srli	t3,s7,0x10
 21c:	0176a023          	sw	s7,0(a3)
 220:	0186a223          	sw	s8,4(a3)
 224:	0196a423          	sw	s9,8(a3)
 228:	01a6a623          	sw	s10,12(a3)
 22c:	01b6a823          	sw	s11,16(a3)
 230:	01c6aa23          	sw	t3,20(a3)
 234:	800002b7          	lui	t0,0x80000
 238:	dc5b96e3          	bne	s7,t0,4 <fail_loop>
 23c:	400002b7          	lui	t0,0x40000
 240:	dc5c12e3          	bne	s8,t0,4 <fail_loop>
 244:	000102b7          	lui	t0,0x10
 248:	da5c9ee3          	bne	s9,t0,4 <fail_loop>
 24c:	00100293          	li	t0,1
 250:	da5d1ae3          	bne	s10,t0,4 <fail_loop>
 254:	800002b7          	lui	t0,0x80000
 258:	da5d96e3          	bne	s11,t0,4 <fail_loop>
 25c:	000082b7          	lui	t0,0x8
 260:	da5e12e3          	bne	t3,t0,4 <fail_loop>
 264:	00001d17          	auipc	s10,0x1
 268:	db0d0d13          	addi	s10,s10,-592 # 1014 <test_B_data>
 26c:	00001d97          	auipc	s11,0x1
 270:	e3cd8d93          	addi	s11,s11,-452 # 10a8 <test_B_res>
 274:	000d2e03          	lw	t3,0(s10)
 278:	001e5e93          	srli	t4,t3,0x1
 27c:	001edf13          	srli	t5,t4,0x1
 280:	001f5f93          	srli	t6,t5,0x1
 284:	001fd093          	srli	ra,t6,0x1
 288:	0010d113          	srli	sp,ra,0x1
 28c:	00115193          	srli	gp,sp,0x1
 290:	01cda023          	sw	t3,0(s11)
 294:	01dda223          	sw	t4,4(s11)
 298:	01eda423          	sw	t5,8(s11)
 29c:	01fda623          	sw	t6,12(s11)
 2a0:	001da823          	sw	ra,16(s11)
 2a4:	002daa23          	sw	sp,20(s11)
 2a8:	003dac23          	sw	gp,24(s11)
 2ac:	abcdf2b7          	lui	t0,0xabcdf
 2b0:	f1028293          	addi	t0,t0,-240 # abcdef10 <_end+0xabcdde30>
 2b4:	d45e18e3          	bne	t3,t0,4 <fail_loop>
 2b8:	55e6f2b7          	lui	t0,0x55e6f
 2bc:	78828293          	addi	t0,t0,1928 # 55e6f788 <_end+0x55e6e6a8>
 2c0:	d45e92e3          	bne	t4,t0,4 <fail_loop>
 2c4:	2af382b7          	lui	t0,0x2af38
 2c8:	bc428293          	addi	t0,t0,-1084 # 2af37bc4 <_end+0x2af36ae4>
 2cc:	d25f1ce3          	bne	t5,t0,4 <fail_loop>
 2d0:	1579c2b7          	lui	t0,0x1579c
 2d4:	de228293          	addi	t0,t0,-542 # 1579bde2 <_end+0x1579ad02>
 2d8:	d25f96e3          	bne	t6,t0,4 <fail_loop>
 2dc:	055e72b7          	lui	t0,0x55e7
 2e0:	f7828293          	addi	t0,t0,-136 # 55e6f78 <_end+0x55e5e98>
 2e4:	d25110e3          	bne	sp,t0,4 <fail_loop>
 2e8:	02af32b7          	lui	t0,0x2af3
 2ec:	7bc28293          	addi	t0,t0,1980 # 2af37bc <_end+0x2af26dc>
 2f0:	d0519ae3          	bne	gp,t0,4 <fail_loop>
 2f4:	00001097          	auipc	ra,0x1
 2f8:	d2408093          	addi	ra,ra,-732 # 1018 <test_C_data>
 2fc:	00001117          	auipc	sp,0x1
 300:	dc810113          	addi	sp,sp,-568 # 10c4 <test_C_res>
 304:	0000a283          	lw	t0,0(ra)
 308:	0012d013          	srli	zero,t0,0x1
 30c:	00012023          	sw	zero,0(sp)
 310:	00000293          	li	t0,0
 314:	ce5018e3          	bne	zero,t0,4 <fail_loop>
 318:	00001097          	auipc	ra,0x1
 31c:	d0408093          	addi	ra,ra,-764 # 101c <test_D_data>
 320:	00001117          	auipc	sp,0x1
 324:	da810113          	addi	sp,sp,-600 # 10c8 <test_D_res>
 328:	0000a283          	lw	t0,0(ra)
 32c:	0012d013          	srli	zero,t0,0x1
 330:	00105293          	srli	t0,zero,0x1
 334:	00012023          	sw	zero,0(sp)
 338:	00512223          	sw	t0,4(sp)
 33c:	00000293          	li	t0,0
 340:	cc5012e3          	bne	zero,t0,4 <fail_loop>
 344:	00000293          	li	t0,0
 348:	ca529ee3          	bne	t0,t0,4 <fail_loop>
 34c:	4b40006f          	j	800 <ok_loop>

00000350 <end_testcode>:
 350:	c0001073          	unimp
	...

Disassembly of section .tohost:

00000800 <ok_loop>:
 800:	0000006f          	j	800 <ok_loop>

Disassembly of section .data:

00001000 <test_A1_data>:
    1000:	0000                	unimp
	...

00001004 <test_A2_data>:
    1004:	0001                	nop
	...

00001008 <test_A3_data>:
    1008:	ffff                	0xffff
    100a:	ffff                	0xffff

0000100c <test_A4_data>:
    100c:	ffff                	0xffff
    100e:	7fff                	0x7fff

00001010 <test_A5_data>:
    1010:	0000                	unimp
    1012:	8000                	0x8000

00001014 <test_B_data>:
    1014:	ef10                	fsw	fa2,24(a4)
    1016:	abcd                	j	1608 <_end+0x528>

00001018 <test_C_data>:
    1018:	5678                	lw	a4,108(a2)
    101a:	1234                	addi	a3,sp,296

0000101c <test_D_data>:
    101c:	ba98                	fsd	fa4,48(a3)
    101e:	fedc                	fsw	fa5,60(a3)

00001020 <begin_signature>:
    1020:	bbbbbbbb          	0xbbbbbbbb
    1024:	bbbbbbbb          	0xbbbbbbbb
    1028:	bbbbbbbb          	0xbbbbbbbb
    102c:	bbbbbbbb          	0xbbbbbbbb

00001030 <test_A1_res>:
    1030:	ffff                	0xffff
    1032:	ffff                	0xffff
    1034:	ffff                	0xffff
    1036:	ffff                	0xffff
    1038:	ffff                	0xffff
    103a:	ffff                	0xffff
    103c:	ffff                	0xffff
    103e:	ffff                	0xffff
    1040:	ffff                	0xffff
    1042:	ffff                	0xffff
    1044:	ffff                	0xffff
    1046:	ffff                	0xffff

00001048 <test_A2_res>:
    1048:	ffff                	0xffff
    104a:	ffff                	0xffff
    104c:	ffff                	0xffff
    104e:	ffff                	0xffff
    1050:	ffff                	0xffff
    1052:	ffff                	0xffff
    1054:	ffff                	0xffff
    1056:	ffff                	0xffff
    1058:	ffff                	0xffff
    105a:	ffff                	0xffff
    105c:	ffff                	0xffff
    105e:	ffff                	0xffff

00001060 <test_A3_res>:
    1060:	ffff                	0xffff
    1062:	ffff                	0xffff
    1064:	ffff                	0xffff
    1066:	ffff                	0xffff
    1068:	ffff                	0xffff
    106a:	ffff                	0xffff
    106c:	ffff                	0xffff
    106e:	ffff                	0xffff
    1070:	ffff                	0xffff
    1072:	ffff                	0xffff
    1074:	ffff                	0xffff
    1076:	ffff                	0xffff

00001078 <test_A4_res>:
    1078:	ffff                	0xffff
    107a:	ffff                	0xffff
    107c:	ffff                	0xffff
    107e:	ffff                	0xffff
    1080:	ffff                	0xffff
    1082:	ffff                	0xffff
    1084:	ffff                	0xffff
    1086:	ffff                	0xffff
    1088:	ffff                	0xffff
    108a:	ffff                	0xffff
    108c:	ffff                	0xffff
    108e:	ffff                	0xffff

00001090 <test_A5_res>:
    1090:	ffff                	0xffff
    1092:	ffff                	0xffff
    1094:	ffff                	0xffff
    1096:	ffff                	0xffff
    1098:	ffff                	0xffff
    109a:	ffff                	0xffff
    109c:	ffff                	0xffff
    109e:	ffff                	0xffff
    10a0:	ffff                	0xffff
    10a2:	ffff                	0xffff
    10a4:	ffff                	0xffff
    10a6:	ffff                	0xffff

000010a8 <test_B_res>:
    10a8:	ffff                	0xffff
    10aa:	ffff                	0xffff
    10ac:	ffff                	0xffff
    10ae:	ffff                	0xffff
    10b0:	ffff                	0xffff
    10b2:	ffff                	0xffff
    10b4:	ffff                	0xffff
    10b6:	ffff                	0xffff
    10b8:	ffff                	0xffff
    10ba:	ffff                	0xffff
    10bc:	ffff                	0xffff
    10be:	ffff                	0xffff
    10c0:	ffff                	0xffff
    10c2:	ffff                	0xffff

000010c4 <test_C_res>:
    10c4:	ffff                	0xffff
    10c6:	ffff                	0xffff

000010c8 <test_D_res>:
    10c8:	ffff                	0xffff
    10ca:	ffff                	0xffff
    10cc:	ffff                	0xffff
    10ce:	ffff                	0xffff

000010d0 <end_signature>:
    10d0:	eeee                	fsw	fs11,92(sp)
    10d2:	eeee                	fsw	fs11,92(sp)
    10d4:	eeee                	fsw	fs11,92(sp)
    10d6:	eeee                	fsw	fs11,92(sp)
    10d8:	eeee                	fsw	fs11,92(sp)
    10da:	eeee                	fsw	fs11,92(sp)
    10dc:	eeee                	fsw	fs11,92(sp)
    10de:	eeee                	fsw	fs11,92(sp)
